c__builtin__
set
p0
((lp1
I5
aI6
aI7
aI10
aI13
aI14
aI19
aI21
aI613875734
aI23
aI25
aI26
aI27
aI28
aI36
aI37
aI38
aI5532418087
aI41
aI592904235
aI45
aI46
aI49
aI52
aI54
aI4820107319
aI56
aI60
aI61
aI62
aI63
aI38666306
aI38666307
aI68
aI72
aI73
aI74
aI75
aI961216589
aI38666327
aI38666328
aI1343503
aI39146853
aI350027878
aI8388711
aI3314024581
aI61014169
aI2197160106
aI370147506
aI38731990
aI3735779
aI39
aI6641023
aI43
aI592904455
aI4302831885
aI4802478358
aI4820238618
aI2856452382
aI1439105318
aI4820238636
aI3231187250
aI1538261321
aI10486091
aI3890610522
aI2648834412
aI368771442
aI3231121783
aI4552589688
aI5015667066
aI38731839
aI67
aI227410339
aI4547281317
aI616432043
aI372637768
aI1445593525
aI4194435520
aI4820238799
aI4489019870
aI2357789152
aI4802150882
aI4820238819
aI938213862
aI2107900409
aI3730768399
aI679412248
aI2671641135
aI4304798261
aI4304798262
aI6280643141
aI2891252310
aI1390936667
aI294847087
aI294847088
aI294847089
aI294847091
aI294847093
aI294847100
aI284754569
aI3878814353
aI16908952
aI4802151072
aI4469949093
aI38732454
aI16908988
aI16908989
aI16908993
aI3463381698
aI4820239047
aI4550645196
aI294847182
aI294847185
aI294847186
aI16909011
aI336069332
aI336069333
aI294847190
aI294847191
aI294847192
aI294847194
aI294847195
aI294847196
aI294847197
aI2072117986
aI1438974691
aI3128230631
aI294847209
aI294847211
aI294847212
aI16909037
aI294847215
aI294847216
aI294847217
aI336069364
aI3894543095
aI336069369
aI3938910974
aI294847234
aI294847235
aI294847236
aI294847237
aI4304077574
aI294847240
aI340153817
aI3625124643
aI84869931
aI61014839
aI3813016377
aI336069449
aI38732634
aI294978395
aI4802478945
aI907849
aI336069481
aI340153832
aI854262642
aI336069501
aI1429144447
aI907850
aI1436287887
aI329253778
aI2432893858
aI284754852
aI2586575798
aI38667193
aI38667194
aI38667201
aI38667214
aI3349480405
aI2719155173
aI1437674322
aI38667249
aI38667250
aI794690557
aI372638728
aI3202745362
aI2072118296
aI1436484635
aI797443106
aI351655433
aI4623238205
aI929629250
aI4820436037
aI294901260
aI284755034
aI4802151519
aI3349152864
aI4351788134
aI2390230131
aI38667393
aI38667394
aI1436615811
aI3925869700
aI4302111877
aI283968648
aI3641115797
aI6213862553
aI4820239515
aI294978741
aI294978747
aI63636668
aI294978749
aI257338230
aI4820239559
aI294978761
aI491521240
aI3963421917
aI273548512
aI3233481955
aI4802086116
aI38742908
aI4302243068
aI2368406791
aI3677160712
aI12977430
aI400468869
aI2511886220
aI288806450
aI866714938
aI929498440
aI927860065
aI336069993
aI280036725
aI778700158
aI789120385
aI3337945323
aI322055065
aI2274317894
aI39388592
aI63636916
aI1442448825
aI38667712
aI4246013383
aI12977617
aI4820108770
aI2148750930
aI1437074931
aI4820108789
aI3938715127
aI1119618555
aI924386824
aI12977675
aI3364423182
aI400360986
aI4120380968
aI4802086443
aI38655581
aI3338010893
aI5015668309
aI257349221
aI4550493798
aI294979177
aI4820108912
aI329057905
aI400426614
aI284755576
aI400426617
aI400426618
aI400426622
aI3583683521
aI400426633
aI2673215120
aI400426643
aI400426648
aI400426650
aI4802479771
aI400426652
aI400426653
aI400426654
aI778700448
aI4497606319
aI400426675
aI3631285943
aI4820108984
aI4820108985
aI400426685
aI400426688
aI462096073
aI1429210828
aI63637204
aI63702754
aI308511014
aI400426730
aI400426733
aI4802479866
aI6608512
aI5256972039
aI4071032595
aI4261653
aI4802086681
aI4303334363
aI207882022
aI273549095
aI118818603
aI5111809840
aI3996059446
aI6608522
aI3813279564
aI845743967
aI2893940578
aI4820240231
aI7777256
aI348653426
aI1442580357
aI284797933
aI797771669
aI6192629659
aI4820109218
aI5845616571
aI2097416171
aI257408563
aI2275215348
aI308086777
aI1705993
aI484509737
aI38668333
aI283969592
aI3738830912
aI1979254853
aI63703114
aI400427102
aI2381645919
aI255789155
aI400427120
aI4820437124
aI4478512150
aI284756108
aI2543650960
aI382732437
aI4820240534
aI4361029809
aI226252489
aI353700031
aI353700034
aI478021854
aI336070885
aI430115065
aI430115067
aI3914729732
aI4820216876
aI38668559
aI400905944
aI38668566
aI351622874
aI1670777133
aI38668598
aI4133620037
aI401934687
aI3936487777
aI4802087267
aI4303292790
aI4820175223
aI4820109693
aI2899249543
aI280876780
aI6608624
aI68048625
aI4820240809
aI4194503084
aI2055342510
aI839322051
aI4304800196
aI124586467
aI4820240884
aI305376342
aI449907210
aI1806764560
aI854198806
aI2421295640
aI2274691610
aI7777370
aI6641413
aI5573153
aI5483858466
aI4303292966
aI609946151
aI38668865
aI257502305
aI309463631
aI4182968921
aI6641425
aI284756590
aI182848115
aI38699455
aI2851265
aI4477356695
aI470485660
aI1436331127
aI3358198476
aI4478798541
aI1150028497
aI1226050258
aI31031758
aI257502329
aI31031759
aI1608614352
aI451283682
aI336025383
aI104729325
aI668076807
aI3812887306
aI4489415458
aI4469151537
aI257502343
aI372640558
aI294980400
aI590678842
aI6565002
aI272173894
aI372640603
aI323423068
aI3584822123
aI294908551
aI4515695471
aI226823026
aI1270173
aI3625978748
aI6565013
aI4478536580
aI2643725190
aI294934337
aI294849420
aI4802467653
aI3408595889
aI47057843
aI5068098508
aI2229996495
aI4352707538
aI3938913241
aI961743837
aI3980397555
aI1436486645
aI930024438
aI4304800783
aI4304800784
aI5069081635
aI336071716
aI336071717
aI336071719
aI451152936
aI336071721
aI336071723
aI183307316
aI3894938686
aI38734916
aI38734917
aI6949984
aI6949985
aI4820110435
aI4820110436
aI4820110437
aI4820110438
aI6565052
aI4820241539
aI6565057
aI4304735376
aI1436486817
aI6565064
aI3337817283
aI1436749011
aI2274495700
aI484486351
aI3545697508
aI336071921
aI4820110578
aI1806437622
aI182193405
aI4477684993
aI4820110605
aI4469205604
aI6608773
aI3349155108
aI336072000
aI336072001
aI6641548
aI4088925518
aI294980943
aI4303883620
aI38735205
aI38735207
aI38735208
aI4820110704
aI4820110705
aI155127154
aI2055671156
aI790039925
aI6641557
aI4820110723
aI6641558
aI5568138632
aI4820241801
aI127937773
aI284757395
aI1470434722
aI4217769379
aI2754612660
aI491785654
aI3622440393
aI1436683724
aI1267620
aI3691056609
aI4516023785
aI6608808
aI5489233415
aI2504068631
aI38735385
aI4478537252
aI294901681
aI967839286
aI4478537283
aI2055343685
aI2498629190
aI3867545165
aI351604304
aI351604305
aI351604306
aI351604308
aI609947221
aI1156386391
aI351604319
aI5118955112
aI724602
aI4302245502
aI1436356231
aI63639178
aI63639179
aI724625
aI4820373138
aI63639194
aI63639199
aI351604413
aI1439829698
aI564465365
aI3938717398
aI284757721
aI226823898
aI924389085
aI284757726
aI336072415
aI38670049
aI288820972
aI4489088773
aI38735628
aI3469741845
aI38670108
aI3337948963
aI3936054
aI3936060
aI2856718145
aI2055737168
aI1436356435
aI284757847
aI284757848
aI1444679525
aI16912230
aI759762810
aI63704966
aI284757903
aI284757905
aI1436356498
aI38670232
aI284757920
aI284757921
aI284757924
aI284757925
aI3932557225
aI284757930
aI284757932
aI284757933
aI4134342593
aI907255
aI308118179
aI1515392980
aI317788119
aI2643511514
aI2009599976
aI1651027282
aI446173168
aI351604724
aI351604750
aI351604751
aI351604753
aI4820176926
aI1436291108
aI336047452
aI257495090
aI38670387
aI38670388
aI38670389
aI3231060050
aI284758108
aI3215724643
aI284758117
aI227414144
aI227414145
aI956371074
aI1436487813
aI227414150
aI227414151
aI1436291208
aI3870858
aI38736016
aI3772780696
aI4820177057
aI400494755
aI491786411
aI1805914289
aI4820177075
aI1314998
aI1314999
aI1436506145
aI1199509709
aI3305574613
aI38670553
aI38670560
aI1436487910
aI1315047
aI1315048
aI336069331
aI294847188
aI294847189
aI5771524
aI5771528
aI5771530
aI642126091
aI5771532
aI5771534
aI5771539
aI2499809557
aI38670621
aI38670622
aI3938717987
aI1687032110
aI16912689
aI1315124
aI2197033269
aI3740406085
aI1315164
aI994382177
aI503714165
aI1921913216
aI2994475395
aI4303294854
aI3267647553
aI1315211
aI6248206732
aI5015802270
aI549392801
aI1226248621
aI1315247
aI1315252
aI227323298
aI684462544
aI3198161372
aI1436488167
aI4304146920
aI1436357099
aI1436357100
aI4303294957
aI38670839
aI1315329
aI5771778
aI5771779
aI6274355716
aI5771783
aI5771791
aI3940680452
aI1436357152
aI5771811
aI294847238
aI708448816
aI4498592316
aI5771842
aI1437078090
aI5781237
aI1315416
aI38736474
aI1315420
aI353702504
aI382734959
aI38656105
aI6609002
aI4302770815
aI6565312
aI257495683
aI1315482
aI257495709
aI257495712
aI257495715
aI257495718
aI257495722
aI3230899591
aI3437368011
aI4820217293
aI2990346970
aI38671080
aI611259118
aI1093077
aI4302770949
aI660235
aI660255
aI660258
aI1351160612
aI660262
aI660265
aI3201838557
aI660272
aI2644251441
aI257495866
aI2912490300
aI2678068039
aI711581
aI2786988877
aI257495887
aI257495888
aI257495889
aI257495890
aI257495891
aI257495892
aI257495894
aI2596672343
aI227414872
aI274862940
aI2381583204
aI3573617509
aI3334607726
aI3949007738
aI257495933
aI5772160
aI5772163
aI5772164
aI410719113
aI704517007
aI317489987
aI5772183
aI97981338
aI38736797
aI660385
aI4874113956
aI660389
aI660394
aI1436488620
aI400626606
aI660402
aI3725143539
aI660404
aI660405
aI660408
aI660410
aI660411
aI1436488636
aI317489994
aI336047605
aI317489995
aI704517060
aI4469822405
aI38743543
aI208016335
aI208016336
aI208016337
aI38736850
aI449894564
aI257496026
aI6565370
aI704517089
aI988134
aI988135
aI988136
aI6219568111
aI336073744
aI3890484252
aI257496094
aI257496095
aI257496096
aI934745121
aI257496098
aI3362722854
aI4874535772
aI708711467
aI2357728300
aI257496109
aI38671424
aI988228
aI988229
aI274858849
aI988232
aI988233
aI988234
aI2625180748
aI4304147539
aI2197623901
aI431035486
aI3454211177
aI518460527
aI451286136
aI4489352322
aI451286154
aI351605900
aI351605901
aI431035538
aI431035540
aI38737050
aI431035547
aI351605916
aI351605917
aI351605918
aI351605919
aI351605920
aI431035553
aI1747195045
aI38737063
aI491787437
aI336073906
aI336047646
aI3811710145
aI1436488903
aI3760329943
aI988386
aI988391
aI988396
aI372643062
aI105387257
aI208016638
aI336073983
aI336073987
aI431035668
aI988439
aI988440
aI988445
aI660766
aI660769
aI431035686
aI431035687
aI431035689
aI336074027
aI854267190
aI660798
aI336074053
aI3470333257
aI336074059
aI336074062
aI336074066
aI4853929305
aI2009535838
aI988512
aI988516
aI288953702
aI288953705
aI288953708
aI3231126894
aI217519477
aI336074106
aI2225658090
aI4820243843
aI2107708808
aI336074126
aI336074127
aI336074128
aI2888897961
aI4469364143
aI1149939272
aI660917
aI4802483639
aI4820309432
aI660921
aI660927
aI17503684
aI4304147912
aI660950
aI660951
aI1215174106
aI988641
aI38671842
aI336074213
aI3938719206
aI336074217
aI336074218
aI988651
aI988653
aI988654
aI336074223
aI1651054071
aI336055156
aI1093205
aI854791685
aI317330951
aI317330952
aI317330953
aI5623125514
aI16913931
aI17503756
aI317330957
aI665523726
aI317330959
aI317330962
aI317330964
aI336074262
aI317330968
aI317330969
aI988699
aI317330972
aI317330973
aI317330974
aI317330975
aI317330976
aI317330977
aI317330978
aI988707
aI317330980
aI317330981
aI17503784
aI17503785
aI17503788
aI4820309550
aI17503795
aI38737460
aI38737461
aI17503798
aI17503800
aI317331001
aI17503804
aI17503805
aI1436489278
aI17503809
aI38737477
aI38737478
aI3351123528
aI4820309577
aI17503818
aI2347177550
aI336074322
aI611063379
aI336074324
aI16914012
aI16914017
aI17503842
aI661091
aI38737508
aI17503849
aI4815459946
aI16914027
aI988780
aI988783
aI16914032
aI16914033
aI16914034
aI988787
aI988789
aI988790
aI17503877
aI1436489353
aI1436489356
aI4478867098
aI258086557
aI156767904
aI16914081
aI336074406
aI16914089
aI16914090
aI16914091
aI16914092
aI16914099
aI16914101
aI4302116534
aI2380601017
aI16914109
aI38737611
aI595665
aI595666
aI501421779
aI595672
aI595677
aI2424313575
aI988906
aI4238481169
aI294983444
aI227415830
aI227415831
aI227415838
aI1436292896
aI7712392
aI17504053
aI17504054
aI17504055
aI97982278
aI17504073
aI3083147088
aI379066194
aI4082833239
aI5488842585
aI4820309854
aI5777397608
aI4868544361
aI4478801771
aI7712405
aI3349157760
aI501421958
aI4802484114
aI3001948058
aI587077540
aI929699751
aI317490164
aI2357729219
aI292324342
aI7777953
aI46274512
aI61020120
aI765604
aI2442270687
aI328827899
aI1436489701
aI1436489702
aI1093516
aI4286186493
aI4304082931
aI46274553
aI124590076
aI2851840
aI1436293127
aI1093293
aI4802484241
aI4486038531
aI3890185220
aI7777968
aI5773350
aI765618
aI5773368
aI5773373
aI711008
aI765622
aI938547280
aI5773399
aI208017516
aI2851858
aI17504373
aI17504375
aI227416200
aI1436293264
aI227416209
aI4828895378
aI353704085
aI2274302116
aI5361768622
aI3305969870
aI317490211
aI3772503877
aI3545635053
aI3866761456
aI17504498
aI4346222838
aI4217903355
aI3895924997
aI1436489990
aI3631094036
aI765657
aI1602427161
aI2752321820
aI765659
aI306518311
aI2566592809
aI309401906
aI3539540276
aI2790332731
aI309401918
aI17504585
aI17504586
aI38672717
aI17504593
aI4304148818
aI17504596
aI17504597
aI333939770
aI285219166
aI1841503
aI17504609
aI1841507
aI1436490084
aI2790332778
aI3464239469
aI3108313461
aI351607161
aI351607162
aI351607163
aI351607164
aI351607165
aI17504642
aI351607171
aI1841541
aI1841542
aI351607177
aI351607178
aI351607179
aI38700100
aI1439177114
aI1841563
aI907674
aI38700102
aI2311461294
aI907677
aI82713019
aI82713021
aI1437604292
aI1436490183
aI2863733199
aI294984144
aI332405204
aI38738418
aI2196838917
aI4820310542
aI351634520
aI3675871662
aI38672922
aI1391008303
aI32064172
aI422091
aI201595472
aI5773905
aI478288469
aI5773911
aI1436293720
aI478288475
aI5773921
aI2197690978
aI5773924
aI5773925
aI5773926
aI1221270123
aI5773935
aI794040956
aI3349158533
aI2888702602
aI1841803
aI4302641808
aI708516498
aI4820310690
aI5015607972
aI1841837
aI662191
aI4478999217
aI662198
aI662202
aI4842134203
aI662205
aI662206
aI662207
aI662208
aI662210
aI662211
aI662212
aI662213
aI662215
aI662216
aI662218
aI662219
aI662221
aI662226
aI662228
aI1436490456
aI3144358622
aI400497376
aI38673130
aI38673131
aI478288620
aI3502512890
aI708516681
aI4820310861
aI662351
aI208018261
aI662363
aI4820310876
aI662367
aI662368
aI662369
aI662370
aI662371
aI662377
aI662378
aI662381
aI662382
aI4246084468
aI369809897
aI3890486144
aI38673316
aI3992001445
aI2097421225
aI3571391409
aI38673335
aI344595418
aI634705
aI431037417
aI431037418
aI1478958061
aI207925075
aI4802092023
aI4795997176
aI1093460
aI704584706
aI4802096983
aI4055309335
aI567483417
aI1338599
aI1479089188
aI711174
aI4271053886
aI3338280002
aI5512261
aI4091812938
aI4477557836
aI4304149592
aI38673500
aI4469365853
aI9837664
aI907792
aI478289007
aI97983610
aI3933346945
aI2616269955
aI2198019209
aI208018577
aI3539737748
aI410721431
aI1436490908
aI1437080736
aI1436359853
aI478289070
aI4134804665
aI1436359883
aI12933667
aI257498324
aI907812
aI129113309
aI3267566817
aI2312117481
aI1436359921
aI294771241
aI2359368952
aI1436491024
aI549330194
aI257498392
aI63642909
aI16915754
aI765832
aI344857907
aI564469055
aI9831648
aI662851
aI38673732
aI3362987337
aI3571653980
aI257498463
aI4820508012
aI765842
aI4043119987
aI13010154
aI3233488263
aI3201506714
aI257498534
aI4469348937
aI1436342858
aI257498558
aI227417539
aI227417540
aI257498565
aI257498566
aI32054729
aI32054730
aI431889870
aI227417551
aI854203861
aI257498585
aI257498586
aI5774811
aI5774813
aI3890224606
aI1436360167
aI200678889
aI5774826
aI351612839
aI38673904
aI1199316465
aI257498611
aI257498612
aI257498613
aI257498614
aI16915959
aI257498616
aI257498617
aI16915962
aI16915963
aI16915964
aI16915965
aI16915966
aI16915968
aI16915969
aI16915974
aI16915975
aI16915976
aI659824137
aI16915980
aI257498637
aI16915982
aI16915983
aI16915984
aI16915986
aI16915987
aI16915992
aI171449883
aI294985245
aI294985246
aI294985247
aI1438195245
aI336026206
aI227417654
aI38673978
aI1437146685
aI1093558
aI4820246091
aI2119769690
aI797580909
aI227417734
aI227417735
aI227417736
aI938221202
aI3573554840
aI3974635171
aI3306434506
aI4302118593
aI38674122
aI32054987
aI32054995
aI46276311
aI3384221402
aI1390812899
aI155131620
aI38739689
aI294854378
aI4304150252
aI4820180720
aI208019205
aI227417864
aI6889228
aI3938721550
aI294854416
aI765912
aI227417874
aI400611972
aI4304150309
aI1436491559
aI1436491568
aI431038262
aI227417911
aI431038265
aI376381247
aI227417922
aI2595888969
aI431038286
aI431038287
aI431038296
aI2357779087
aI3349159773
aI431038304
aI376381281
aI431038309
aI431038313
aI376381293
aI1093608
aI4217756308
aI4476641148
aI431075307
aI3626377094
aI227417991
aI3349159819
aI6889358
aI4820180887
aI16916378
aI907930
aI765936
aI3250659235
aI765938
aI450080755
aI539041718
aI2031755208
aI451162103
aI257499086
aI3539541971
aI227418074
aI4820180964
aI257499112
aI4469366776
aI3306364932
aI4820181018
aI3002041692
aI257499196
aI257499197
aI1436491838
aI2568167487
aI257499200
aI16916548
aI4479131725
aI227418192
aI257499217
aI257499218
aI257499227
aI63625914
aI1436491870
aI711355
aI4304085100
aI182198385
aI765971
aI257499257
aI4054917242
aI2904109077
aI2536906880
aI38744088
aI1437073140
aI379068567
aI3631292570
aI38674592
aI711368
aI765983
aI280043712
aI257499345
aI1470505181
aI3938722014
aI336055249
aI4245954787
aI7778342
aI4469367029
aI1651056888
aI4819984634
aI336055250
aI1436688656
aI3349153155
aI1436623158
aI336037257
aI704520506
aI4802093375
aI227418436
aI4304150856
aI3878363469
aI294854993
aI294854998
aI294854999
aI257499480
aI294855003
aI2854214373
aI431038816
aI431038817
aI431038818
aI431038819
aI349577580
aI16916847
aI16916848
aI4820181362
aI294855027
aI63644020
aI1436688757
aI294855030
aI3159564667
aI294855037
aI294855039
aI2661949824
aI4820115846
aI431038856
aI431038857
aI431038858
aI431038859
aI431038860
aI431038861
aI431038862
aI431038863
aI4820115870
aI182854069
aI4303430081
aI3349160388
aI2596544968
aI711415
aI612770260
aI16916961
aI16916962
aI227418596
aI4820181479
aI4470022634
aI4820247043
aI16916996
aI5015675434
aI4477559343
aI845816374
aI63691529
aI1436688971
aI6955599
aI6955600
aI6955603
aI6955604
aI227418729
aI4469367408
aI766057
aI1267802745
aI4246545035
aI16917163
aI16917164
aI16917166
aI6955698
aI38675123
aI32055992
aI3407946425
aI6955706
aI294986436
aI6955717
aI1469260488
aI6955723
aI16917197
aI6955737
aI6955738
aI227418843
aI294771493
aI6955745
aI16917219
aI16917222
aI16917224
aI227418857
aI1747526378
aI6955755
aI16917232
aI4535558897
aI97966889
aI63735253
aI208020224
aI46277378
aI2056135427
aI46277381
aI854729478
aI294771500
aI1436665079
aI704520992
aI1215233325
aI431039288
aI431039289
aI431039290
aI431039291
aI32056126
aI32056127
aI431039296
aI32056129
aI32056130
aI227418948
aI659891014
aI227418952
aI587080532
aI699867991
aI659891037
aI294869819
aI3721339750
aI431039337
aI431039340
aI32056182
aI38678677
aI32056197
aI317304983
aI3996132249
aI294963314
aI3625984940
aI655565744
aI1437344689
aI4100268983
aI38675387
aI32056252
aI16917446
aI1437344724
aI1319905
aI1319906
aI2893685736
aI430449649
aI2507744244
aI854729761
aI227419172
aI351675430
aI294986791
aI659891268
aI1320016
aI38675537
aI1320018
aI1320019
aI4802479630
aI431039579
aI1437344861
aI294771557
aI294771558
aI704586856
aI431039593
aI711527
aI294986867
aI294986868
aI659891330
aI431039621
aI227419272
aI31073418
aI614147217
aI294986904
aI111355036
aI84878493
aI3127452833
aI4303168674
aI257500333
aI257500335
aI6562993
aI6562994
aI2096833715
aI257500341
aI2924160186
aI704521409
aI3853067458
aI257500358
aI257500364
aI4990969039
aI2099324112
aI711545
aI257500381
aI257500389
aI484713708
aI16917741
aI257500408
aI4303234304
aI38675718
aI257500428
aI16917773
aI257500430
aI257500431
aI38675728
aI3895076123
aI257500452
aI257500453
aI227419443
aI789194036
aI257500472
aI1093855
aI257500478
aI227419455
aI16917835
aI16917836
aI16917837
aI16917838
aI2191205727
aI908177
aI16917864
aI3814204779
aI1912218991
aI257500528
aI3230934413
aI4820261784
aI4820182428
aI257500579
aI6563239
aI4802487721
aI974071212
aI908189
aI3127649712
aI554313139
aI227419572
aI3487704509
aI6563268
aI227419590
aI854205897
aI257500619
aI3853067740
aI4820182505
aI3306300923
aI4820248072
aI1436493337
aI4302579249
aI599604
aI599605
aI643114551
aI599610
aI4820248123
aI599614
aI257500737
aI257500738
aI5247280707
aI599620
aI599621
aI257500742
aI257500743
aI257500744
aI599626
aI2887657040
aI599637
aI3582469736
aI4116915817
aI866723439
aI4470023802
aI3013093000
aI353707660
aI197863089
aI155395763
aI4303169212
aI3422299841
aI227419850
aI227419851
aI599756
aI599757
aI599758
aI599760
aI400426616
aI354559698
aI599763
aI599764
aI599765
aI599770
aI1673012961
aI336061847
aI599788
aI599792
aI599793
aI599794
aI4142540536
aI2380932863
aI2435262222
aI4820182799
aI4820182804
aI323364663
aI4820447540
aI1272592
aI4194576195
aI38676293
aI38676294
aI38676295
aI2894014283
aI2141923151
aI38676318
aI1510877026
aI4478628828
aI4304152435
aI5015611256
aI3946325889
aI4820248458
aI665484
aI2274895763
aI82719044
aI4820185414
aI255797161
aI255797162
aI927803314
aI788473787
aI1436493757
aI4089653191
aI711671
aI4820248525
aI157034469
aI6891495
aI3349358572
aI1093970
aI2796955641
aI4477560828
aI8055063
aI294922241
aI1430005768
aI491792395
aI3349162009
aI4820183066
aI4820185434
aI708519969
aI6563885
aI56895550
aI56895551
aI369829952
aI4071761985
aI1436493891
aI56895562
aI4469106763
aI6563918
aI2024089679
aI1436493919
aI294935568
aI4303300713
aI294922359
aI16918655
aI16918658
aI16918659
aI16918663
aI1436493960
aI16918671
aI2421762192
aI16918675
aI16918680
aI16918681
aI16918683
aI16918684
aI16918685
aI16918686
aI16918687
aI16918689
aI56895651
aI56895652
aI2149722285
aI16918703
aI207794549
aI16918726
aI431086627
aI614148316
aI329150646
aI16918765
aI4142541040
aI3631294705
aI708520179
aI16918775
aI16918777
aI4476643578
aI348793088
aI38676744
aI38676745
aI38676746
aI38676747
aI56895757
aI38676757
aI16918808
aI5140392219
aI1437477153
aI61024552
aI317484286
aI294771763
aI38742345
aI8055074
aI16918861
aI3550423374
aI3013159248
aI16918865
aI38742358
aI38742360
aI3894684008
aI5118044522
aI3890293102
aI6564207
aI400501108
aI400501120
aI463415699
aI266742170
aI5976500640
aI38676901
aI38676902
aI38676903
aI38676904
aI734341571
aI4469152847
aI929769950
aI3813419499
aI56895983
aI430451198
aI4820183560
aI4820183561
aI98118163
aI1426401812
aI3992005142
aI4486474265
aI56896039
aI854787847
aI6498860
aI484583981
aI3539544638
aI157035082
aI6564430
aI4470090319
aI257501783
aI4820314713
aI4820183646
aI4100270689
aI1436297839
aI4238486128
aI797629548
aI38677138
aI38742677
aI1436297879
aI257501848
aI294988441
aI38742685
aI1436297886
aI1224944304
aI56896186
aI32058053
aI317488664
aI4820249289
aI6564557
aI4820445919
aI6564578
aI2372872938
aI3080792811
aI1436297979
aI3457014912
aI257501966
aI337872685
aI4304743185
aI257501970
aI257501971
aI1436298010
aI4820249376
aI2433297201
aI257502009
aI257502010
aI257502011
aI2781752128
aI257502033
aI257502034
aI257502035
aI16919389
aI711824
aI3233491818
aI257502062
aI38742898
aI257502067
aI854272886
aI274869113
aI3571919739
aI4246678396
aI908437
aI5494745986
aI2595761030
aI257502090
aI257502093
aI257502094
aI6564754
aI3375704979
aI322055061
aI322055062
aI322055063
aI322055064
aI4820315033
aI322055066
aI322055068
aI6564780
aI383331251
aI2055351239
aI257502163
aI217525204
aI4132907989
aI4013652299
aI6564844
aI3337968809
aI257502208
aI97922052
aI4820184070
aI97922056
aI1340283
aI6564891
aI32058404
aI1436494886
aI6564906
aI6564907
aI6564908
aI6564909
aI257502256
aI6564916
aI257502261
aI4820315197
aI4820249664
aI257502280
aI38743113
aI257502285
aI3811519569
aI38743132
aI4802489439
aI1650994273
aI257502309
aI257502318
aI4303301747
aI2508447313
aI857615481
aI6566421
aI6564999
aI6565000
aI400501898
aI6565003
aI6565004
aI6565007
aI4304153749
aI6565014
aI6565015
aI6565017
aI6565019
aI2108370078
aI6565024
aI6565026
aI6565029
aI1270456
aI6565039
aI6565041
aI6565042
aI38743219
aI6565044
aI6565047
aI6565048
aI6565050
aI3602066620
aI6565054
aI6565055
aI6565056
aI924986561
aI6565058
aI6565059
aI6565062
aI6565063
aI798502088
aI6565074
aI6565075
aI6565076
aI6565078
aI708652251
aI379071708
aI1436560611
aI4478414057
aI1436560621
aI1319841006
aI2347183346
aI711893
aI5496712449
aI3351129364
aI621358359
aI351612196
aI351612197
aI6565162
aI4043124013
aI6565167
aI6565168
aI6565169
aI6565171
aI6565183
aI6565184
aI6565186
aI6565187
aI6565188
aI6565195
aI6565196
aI6565198
aI6565205
aI1436495192
aI2055036133
aI351612258
aI351612264
aI1322356
aI4469828987
aI208416147
aI430452116
aI231615899
aI1443311007
aI1436495266
aI38743463
aI8727980
aI2850421
aI6565300
aI6565302
aI6565306
aI6565307
aI6565311
aI929574336
aI6565313
aI6565315
aI6565321
aI6565326
aI4304743890
aI6565333
aI6565334
aI4846345465
aI4134153688
aI4469370329
aI6565340
aI6565341
aI655961568
aI6565346
aI6565347
aI1322469
aI4304743911
aI283782636
aI711933
aI6565361
aI6565362
aI6565363
aI6565364
aI6565365
aI6565367
aI6565368
aI6565369
aI3632672250
aI6565371
aI6565373
aI6565375
aI6565381
aI6565385
aI6565387
aI6565398
aI6565399
aI6565400
aI6565401
aI1322522
aI6565403
aI4820315682
aI38678051
aI1301766
aI2522164774
aI4304154151
aI4820184623
aI2595183881
aI2955030088
aI2200514134
aI1438264927
aI1436561000
aI1322612
aI317484331
aI6565507
aI6565508
aI6565509
aI6565510
aI6565511
aI6565512
aI6565513
aI6565515
aI6565516
aI6565518
aI6565521
aI6565524
aI6565528
aI6565529
aI6565530
aI6565531
aI6565532
aI6565534
aI285290147
aI1266560707
aI410759798
aI1436561098
aI317468365
aI97922774
aI97922775
aI97922776
aI317468384
aI317468385
aI4246089442
aI793916027
aI317468391
aI317468392
aI317468393
aI317468397
aI1436561135
aI3603509003
aI3523096333
aI5595868951
aI4820315928
aI317468451
aI317468453
aI118828838
aI317468457
aI317337388
aI56176432
aI317468467
aI294924089
aI257503045
aI294924103
aI305868629
aI1436561238
aI38678359
aI711994
aI317337439
aI326053736
aI616836990
aI346894214
aI351612813
aI351612837
aI4820184999
aI351612840
aI5290274741
aI3539414972
aI351612866
aI318386122
aI124596184
aI257503193
aI257503194
aI257503195
aI6566565
aI257503200
aI257503201
aI257503204
aI376211452
aI3779407850
aI124596213
aI257503223
aI1126182919
aI1272667
aI38744075
aI1436299276
aI4246483629
aI38744083
aI38744085
aI257503254
aI4820250647
aI257503256
aI38744089
aI640692267
aI3550425136
aI2787061821
aI789393473
aI3858903110
aI32060087
aI225959266
aI2544709713
aI4246417493
aI4820381786
aI257503325
aI7811180
aI2498703474
aI257503347
aI4469371014
aI2922918031
aI257503381
aI4820250774
aI3311874756
aI257503386
aI257503387
aI3550359734
aI1436299449
aI1323195
aI4120457405
aI659894462
aI257503446
aI257503447
aI1470836956
aI330259834
aI854208739
aI38744298
aI4777128180
aI2222731518
aI4820381954
aI1436299544
aI5017317661
aI4874252578
aI82719016
aI2673291567
aI4820382004
aI1323319
aI294924601
aI4820251359
aI97923391
aI97923394
aI2484941123
aI97923396
aI97923398
aI97923402
aI4820250966
aI4820250967
aI1094372
aI3739365722
aI11230607
aI628339429
aI3349885670
aI97923435
aI6566264
aI6566265
aI6566266
aI6566273
aI4302188935
aI4182978955
aI317469077
aI32060144
aI4469371300
aI4478939572
aI711841
aI379072972
aI776679895
aI156774873
aI3689296354
aI6566382
aI6566383
aI1479029240
aI6566394
aI6566397
aI587674111
aI294924809
aI6566414
aI6566416
aI1987457554
aI6566420
aI1711747605
aI6566422
aI6566426
aI6566430
aI6566431
aI6566435
aI3349951013
aI6566439
aI3671929386
aI69939768
aI4302713401
aI294924868
aI7352912
aI38744677
aI2378314353
aI3895046931
aI1323643
aI1391014532
aI4802491016
aI6566538
aI6566539
aI6566540
aI6566541
aI6566544
aI6566545
aI6566547
aI38744729
aI38744730
aI32060060
aI6566558
aI6566559
aI6566560
aI6566561
aI6566563
aI4802491044
aI463418021
aI6566571
aI6566572
aI6566573
aI6566575
aI6566576
aI6566577
aI6566579
aI6566580
aI6566583
aI6566584
aI6566591
aI6566592
aI6566593
aI6566595
aI6566596
aI6566597
aI6566598
aI37368520
aI6566601
aI565064394
aI4820800769
aI294793945
aI294793946
aI294793947
aI294793951
aI294793952
aI294793957
aI294793958
aI317469422
aI317469423
aI317469424
aI3060413173
aI1438790394
aI1323774
aI2031891200
aI294793990
aI294793992
aI317469454
aI317469459
aI4346557207
aI6213546784
aI6566693
aI6566695
aI6566700
aI6566701
aI317469490
aI317469499
aI3349754684
aI38744895
aI602945
aI602946
aI602948
aI602949
aI602951
aI1266955080
aI6566729
aI602954
aI602955
aI6566734
aI6566735
aI6566737
aI602962
aI6566739
aI6566743
aI6566745
aI602971
aI602972
aI602973
aI602974
aI6566751
aI6566752
aI602978
aI602979
aI602980
aI6566757
aI602982
aI6566760
aI602985
aI6566762
aI602987
aI5780332
aI1437807470
aI6566769
aI31077234
aI6566773
aI6566775
aI6566776
aI5780347
aI5780348
aI6566781
aI6566782
aI6566783
aI6566784
aI6566785
aI351613826
aI6566789
aI6566790
aI6566793
aI6566796
aI6566799
aI5780372
aI351613851
aI16987036
aI6566813
aI351613855
aI3338285984
aI351613858
aI410721440
aI6566828
aI351613871
aI351613872
aI351613873
aI351613874
aI1269235
aI4055708596
aI602953
aI603107
aI603108
aI2129474533
aI603110
aI603111
aI7222250
aI603115
aI603116
aI2274898925
aI38679534
aI603122
aI603126
aI603128
aI603129
aI603131
aI430388230
aI6566924
aI6566925
aI6566928
aI6566931
aI6566933
aI1437119321
aI6566938
aI6566939
aI6566940
aI3241358368
aI6566949
aI6566950
aI48706600
aI257504300
aI1270520
aI4303303731
aI6566969
aI4246484027
aI257504316
aI6566977
aI4820251732
aI1324120
aI257504348
aI257504349
aI602981
aI7222370
aI2507551843
aI5780326
aI257504371
aI2599498869
aI4469372026
aI257405802
aI2601923715
aI6087718021
aI4820251792
aI3725407388
aI351614113
aI5780337
aI3418895532
aI1515533489
aI7746738
aI317469887
aI3305911488
aI1848513
aI1848520
aI3539547346
aI224736467
aI4027200724
aI1215247587
aI4134548718
aI38745327
aI38745328
aI4820186361
aI294794491
aI294794493
aI3098096894
aI2662413568
aI1258761
aI1258762
aI1436331346
aI6566786
aI3996005651
aI156579103
aI4478612783
aI554448185
aI1324363
aI6567266
aI6567267
aI6567274
aI6567280
aI4820186483
aI6567284
aI6567288
aI6567303
aI6567304
aI3384423818
aI1436332954
aI1515271582
aI411055524
aI3081516453
aI3813488043
aI2197239228
aI1324478
aI6567397
aI3938704977
aI6567402
aI6567403
aI1391015405
aI317486577
aI6567412
aI5780995
aI351613868
aI1006515725
aI6567448
aI2764441860
aI6567452
aI38745633
aI6567461
aI6567462
aI6567463
aI6567471
aI6567472
aI6567473
aI6567474
aI6567482
aI6567483
aI4802491967
aI4802885186
aI6567493
aI6567494
aI38680139
aI38680140
aI351614541
aI38680142
aI38680143
aI351614545
aI351614546
aI351614547
aI3463853665
aI4802098790
aI430388843
aI3738908268
aI437139059
aI1436485910
aI182859403
aI182859408
aI6567586
aI6567587
aI6567589
aI6567591
aI854210220
aI4819990193
aI4820317884
aI6567617
aI257405899
aI6567620
aI6567621
aI6567628
aI6567630
aI4802885329
aI6567635
aI6567636
aI6567640
aI6567642
aI6567643
aI6567644
aI6567645
aI6567646
aI6567647
aI6567648
aI6567650
aI6567651
aI5781221
aI773207796
aI6567669
aI5781238
aI5781239
aI5781240
aI5781241
aI6567674
aI5781243
aI5781244
aI5781248
aI6567681
aI684603138
aI6567686
aI6567688
aI38745870
aI4820449042
aI4246484773
aI1335669724
aI4019849526
aI6038435654
aI376715096
aI603109
aI318388074
aI697447399
aI318388076
aI318388077
aI3313055599
aI318388080
aI318388082
aI318388084
aI318388085
aI318388086
aI318388092
aI1444262890
aI317470590
aI317470591
aI317470592
aI2904175595
aI6567813
aI4820318086
aI6567815
aI6567816
aI1650669449
aI1018836875
aI6567822
aI6567823
aI6567824
aI6567825
aI6567826
aI4820318101
aI1324950
aI4156962711
aI1324952
aI2801678238
aI211421509
aI6567843
aI6567844
aI257405937
aI6567848
aI6567849
aI6567850
aI6567851
aI6567853
aI6567854
aI6567859
aI6567861
aI82786230
aI82786231
aI6567864
aI1324986
aI6567869
aI11614142
aI32061381
aI6567878
aI32061387
aI930494415
aI3324393436
aI4820252642
aI38746088
aI5781488
aI257505271
aI318388223
aI1325058
aI788651691
aI318388228
aI3013097483
aI38746124
aI8631300
aI5781534
aI5781535
aI4303173664
aI4303173665
aI6567972
aI6567973
aI6567975
aI4802885672
aI4469393756
aI171325483
aI6567999
aI6568005
aI704514401
aI6568008
aI317470795
aI6568012
aI4267325517
aI934754382
aI6568015
aI6568017
aI6568018
aI6568019
aI2055331513
aI3683006555
aI1325149
aI973289566
aI3349035113
aI257505386
aI257505387
aI1436301424
aI38680696
aI38680697
aI38680698
aI38680699
aI927676540
aI332544127
aI227424393
aI294926482
aI3933681829
aI181811372
aI451295405
aI6568110
aI6568111
aI6568113
aI1094686
aI257340447
aI6568136
aI6568137
aI2097438360
aI6568140
aI6568141
aI6568154
aI6568159
aI6568160
aI6568161
aI6568163
aI6568164
aI6568165
aI6568166
aI227424490
aI227424491
aI1436301564
aI4304156939
aI8631326
aI3811248519
aI1439185211
aI4802885948
aI428357951
aI6568262
aI4699732296
aI6568265
aI6568269
aI6568270
aI6568271
aI6568284
aI6568285
aI5781854
aI6568288
aI294992226
aI3813357924
aI6568293
aI6568303
aI5781874
aI4303305089
aI5781890
aI5781891
aI3231267210
aI1325451
aI5781901
aI5781902
aI5781906
aI4203755923
aI2787457444
aI5781934
aI4089592244
aI3861920191
aI1267546562
aI25639363
aI3464313284
aI4820318661
aI372629239
aI6568396
aI6568400
aI6568401
aI6568402
aI6568404
aI6568405
aI1695481
aI6568409
aI6568410
aI6568414
aI6568416
aI6568417
aI6568419
aI6568427
aI6568428
aI6568429
aI6568432
aI346896881
aI6568434
aI38681076
aI227424758
aI372629247
aI3081583102
aI2055485967
aI3002087954
aI1325603
aI294772487
aI294772488
aI5656207113
aI3405134398
aI373176896
aI82786894
aI938228308
aI31078997
aI3128113767
aI1439119989
aI257351445
aI1227569792
aI69941891
aI4302191242
aI4820318859
aI3772332687
aI4094507670
aI4820187800
aI3938728607
aI38681254
aI38681255
aI436876405
aI5782215
aI38681288
aI5782217
aI294927051
aI1439185616
aI4469897940
aI1094777
aI5782232
aI5355167525
aI17185509
aI428227302
aI4303174388
aI208354038
aI82787063
aI317808427
aI1094786
aI6568719
aI6568724
aI6568725
aI32062230
aI32062238
aI424229668
aI82721575
aI82721578
aI215890733
aI4820253490
aI69942069
aI4302125881
aI431045457
aI1437154147
aI3877780324
aI353713004
aI294927213
aI800013171
aI1194277749
aI431045494
aI317471607
aI317275004
aI1155611521
aI317471619
aI317471620
aI317471625
aI1465138063
aI317471654
aI3813489575
aI317471657
aI317471658
aI5782446
aI2421448520
aI1094814
aI3216391097
aI5782461
aI317275070
aI7779488
aI431045573
aI4802886612
aI4741610453
aI32062422
aI5782488
aI5782489
aI5782490
aI5782491
aI5782494
aI5782496
aI207915516
aI491535339
aI5782509
aI5782512
aI353713140
aI3453434877
aI549338122
aI317471764
aI317471765
aI317471767
aI463420440
aI317471771
aI317471772
aI5140462621
aI1335132
aI317471789
aI167394353
aI4152966205
aI3631103057
aI4858985600
aI787889288
aI4105658221
aI1194278035
aI5015682200
aI1436302498
aI1302387
aI4551818422
aI1302388
aI6219447482
aI3890625724
aI5782721
aI5782724
aI346897607
aI4039445026
aI3349888214
aI5782744
aI294927590
aI2787065065
aI3298770160
aI3631103217
aI5353651451
aI431045906
aI4252384531
aI431045916
aI431045917
aI3602529582
aI5782831
aI5782845
aI5782851
aI431045968
aI4389748062
aI3602136427
aI4820262802
aI3934141814
aI3462348160
aI1436302734
aI5140209560
aI1437023638
aI294862240
aI1440693665
aI294862247
aI353779124
aI463289792
aI354454093
aI317472215
aI317472216
aI2106998233
aI317472218
aI317472219
aI317472220
aI6897117
aI6569445
aI6569446
aI6569447
aI5783016
aI6569449
aI6569450
aI6569452
aI82722290
aI2018852344
aI317508468
aI4636229115
aI5498617340
aI3914806528
aI2903760813
aI82722323
aI1436368436
aI294862398
aI6569541
aI6569544
aI4304813643
aI6569548
aI6569549
aI6569551
aI400637521
aI2098891364
aI1326696
aI1326697
aI4802887274
aI1439055469
aI294794515
aI400506487
aI257406228
aI318389889
aI351616658
aI1436302995
aI3312795286
aI854212252
aI2515484324
aI5783206
aI6569640
aI5783209
aI6569649
aI6569650
aI1436368564
aI6569657
aI6569659
aI1436303047
aI46284493
aI5783248
aI5783249
aI4002037461
aI3739434716
aI4802952927
aI318389992
aI1436303083
aI854212332
aI294862576
aI446185218
aI1326853
aI379076362
aI1340445
aI640773423
aI4302192409
aI1436368677
aI2433236783
aI4259856183
aI38682433
aI38682434
aI4837752655
aI3584048977
aI317341528
aI1336229729
aI317472610
aI372629480
aI1436344297
aI317472646
aI317472647
aI4820254605
aI4820254606
aI1093353365
aI1436368791
aI317472669
aI317472670
aI1436368799
aI1437360112
aI317472674
aI4802887596
aI4823596976
aI317472690
aI336038559
aI1327042
aI3668262859
aI317472718
aI317472719
aI346767313
aI3338485716
aI5191253977
aI3325378525
aI317472740
aI4478615529
aI317341675
aI4477455016
aI1327091
aI6569972
aI317472765
aI317472767
aI3890233344
aI1443381258
aI2006728723
aI3625205808
aI1436368948
aI4820320313
aI6963258
aI4479421109
aI155467841
aI1436368967
aI4301996108
aI317341786
aI294994014
aI294994015
aI294994016
aI294994017
aI317341794
aI257329852
aI6570091
aI4302127212
aI6570093
aI4479533166
aI6570099
aI5489360286
aI294862969
aI4428349584
aI2433433753
aI2594980003
aI1439383716
aI38682799
aI38682800
aI2599764148
aI294863029
aI1433944256
aI294863042
aI294863044
aI3349820792
aI3778560217
aI1429160164
aI1438531849
aI4304748811
aI2346664214
aI2787328289
aI1391018274
aI4485562665
aI858043422
aI227426607
aI227426608
aI1706180935
aI2113232951
aI38748492
aI248791373
aI248791374
aI248791375
aI1602371932
aI372629563
aI31080806
aI3890233703
aI1438244924
aI329269617
aI38682994
aI3231138163
aI227426679
aI2596356476
aI227099016
aI2924102028
aI4134814104
aI1436303786
aI1979335092
aI1436369336
aI672206
aI672213
aI672217
aI672218
aI672220
aI672222
aI672224
aI351683046
aI1436303850
aI424231417
aI779436544
aI336038656
aI4246553095
aI3338289673
aI4121707022
aI1436303890
aI3687793172
aI3136599470
aI460145180
aI2381362608
aI672294
aI672296
aI4469899820
aI672301
aI672303
aI672316
aI1436303944
aI6570572
aI38748753
aI1436697174
aI38683246
aI38683247
aI1365787255
aI294994568
aI294994569
aI294994570
aI672399
aI294994576
aI294994577
aI789114565
aI672408
aI672409
aI672411
aI672413
aI672428
aI672429
aI672430
aI672433
aI6570674
aI672435
aI6570677
aI6570690
aI6570691
aI672454
aI6570695
aI6570700
aI672465
aI6570709
aI6570711
aI6570712
aI1429160667
aI672496
aI672498
aI4820910848
aI672513
aI672514
aI672515
aI351617797
aI351617798
aI672519
aI672533
aI4802888471
aI38748958
aI416538759
aI3631104815
aI351617841
aI38748978
aI6570808
aI4478747449
aI6570810
aI4820058940
aI4820058941
aI6570814
aI1979335487
aI6570819
aI4820058959
aI5303911249
aI4302652245
aI4820058969
aI1438266855
aI38683512
aI38683513
aI294994825
aI1436828557
aI1436304289
aI3663465286
aI1436304298
aI740836276
aI5476991932
aI1436369865
aI351617994
aI537747619
aI4302128129
aI38749194
aI82723852
aI4802888720
aI2801746963
aI1602438172
aI277431330
aI4820059173
aI410692
aI410695
aI32064587
aI4820059212
aI1436697693
aI6898788
aI32064615
aI4820059241
aI6571120
aI6571124
aI1438572734
aI277431422
aI450512000
aI32064642
aI32064643
aI277431430
aI2248361096
aI63653007
aI4802495635
aI38749333
aI32064670
aI431047842
aI4820059312
aI329139380
aI32064695
aI32064699
aI32064700
aI1335498
aI32064707
aI32064709
aI6567457
aI6571217
aI277431506
aI6571227
aI4486481119
aI6571232
aI4116727018
aI4043130100
aI1436370167
aI5413356793
aI329139455
aI2440840453
aI182863118
aI257500739
aI1470448916
aI2010662170
aI329139490
aI38683944
aI38683945
aI38749482
aI2605466924
aI4820059440
aI3938731329
aI6571331
aI1269986
aI418923855
aI3585557842
aI1436501344
aI182863211
aI82789743
aI1450132848
aI82789745
aI4820059525
aI3550430599
aI450799
aI32064937
aI6899129
aI2357740999
aI294995400
aI6567500
aI2786980303
aI182011351
aI226117081
aI400639466
aI4080092661
aI4251600377
aI4802889220
aI1436370441
aI2644264466
aI4820059668
aI6289704471
aI32065056
aI294995492
aI462243369
aI2597078579
aI294995510
aI38749758
aI4304029247
aI3631105600
aI351618628
aI351618630
aI351618631
aI351618632
aI854804042
aI351618646
aI351618647
aI351618654
aI1270032
aI4820059749
aI1436305011
aI1429161589
aI4490872448
aI4820059785
aI1436370572
aI351618701
aI32065198
aI2006599354
aI2595374784
aI2567915203
aI4089661135
aI1436501713
aI1437026014
aI4469376741
aI332416742
aI332416743
aI294995688
aI294995689
aI1436501742
aI4820059898
aI344475390
aI4802103040
aI1436370694
aI4802889491
aI5069621014
aI3668854554
aI2954839842
aI3231074104
aI3312584218
aI2801813330
aI4089661277
aI4820191072
aI2287683436
aI772622191
aI1436501879
aI336021390
aI369706912
aI4575741860
aI228738982
aI226117568
aI463554501
aI1436305351
aI3615836106
aI288796555
aI336021460
aI2787067863
aI336021466
aI3230943202
aI450119653
aI328878058
aI182011890
aI207833079
aI336021511
aI207833103
aI336021521
aI207833106
aI156780563
aI336021526
aI336021527
aI207833112
aI336021529
aI336021530
aI336021531
aI336021532
aI336021533
aI336021534
aI336021535
aI336021537
aI336021538
aI336021540
aI336021541
aI336021543
aI336021545
aI336021546
aI38684717
aI336021550
aI1436370994
aI1335648
aI430388144
aI554321989
aI2888386635
aI226969683
aI1437091934
aI4246489191
aI3583723625
aI317278314
aI4304160876
aI336038930
aI4820060273
aI277432440
aI277432442
aI226248836
aI3417000070
aI4303308944
aI227428502
aI227428503
aI4304947366
aI1436371121
aI2197178548
aI182208694
aI4820060350
aI207833290
aI4820060364
aI4120463585
aI317508561
aI3545712874
aI227428587
aI227428588
aI207833329
aI1602373874
aI4820060403
aI1471498491
aI207833342
aI207833343
aI207833344
aI1108915926
aI3208136969
aI207833361
aI207833363
aI1436305689
aI207833376
aI207833377
aI1436305713
aI31082805
aI38734900
aI3890170195
aI2511817074
aI4820060534
aI1436305791
aI3676391813
aI2367310220
aI1270169
aI4820453791
aI605243817
aI348709277
aI317278642
aI294871454
aI854346175
aI351619524
aI351619533
aI38750673
aI4880419286
aI38291932
aI3391048157
aI351619550
aI351619552
aI351619554
aI351619555
aI2797029860
aI17504540
aI3349187673
aI3767355950
aI4479011383
aI4469181000
aI484592221
aI4469181033
aI1436699250
aI642075268
aI4304816788
aI4302064293
aI4820060839
aI372394682
aI4100213442
aI351619784
aI38750921
aI3932834507
aI1436306124
aI3615771344
aI226118358
aI354568921
aI1272896
aI1436371693
aI38685423
aI38685424
aI1436306163
aI3230943988
aI602943
aI1436371715
aI2110999309
aI605244181
aI1343703832
aI4304030489
aI4802514053
aI616254272
aI1436371780
aI207571782
aI207571783
aI376261457
aI1436306259
aI963005281
aI1335782
aI317803384
aI4196289406
aI462075712
aI2961001364
aI2188987289
aI38751130
aI2787003307
aI155470766
aI1694845875
aI1436371895
aI2055424961
aI185027523
aI336022469
aI207834076
aI350702567
aI4820257768
aI346901491
aI4303309831
aI564481036
aI4820061208
aI46287904
aI182799395
aI501500969
aI1424968751
aI257406815
aI2513259585
aI257406818
aI1199393912
aI38751366
aI789138574
aI4180823210
aI1436306605
aI277433522
aI277433540
aI400510152
aI277433550
aI277433551
aI207768792
aI1436306653
aI678513894
aI317470589
aI3810807041
aI1436312107
aI4469378325
aI708463900
aI6567814
aI3716959528
aI4995304750
aI6567817
aI38751546
aI216878399
aI3371251595
aI788286790
aI416495504
aI2599636324
aI4141895024
aI2113621362
aI38751606
aI2697940353
aI318388118
aI351620495
aI3878374803
aI3362475412
aI2006666646
aI351620513
aI7753124
aI351620517
aI7753126
aI7753127
aI7753128
aI7753129
aI854805938
aI318388126
aI290868679
aI491474377
aI4279755
aI1436700112
aI129387985
aI431050222
aI4820258292
aI4820318122
aI2055163390
aI431050246
aI431050249
aI431050253
aI3671608850
aI3605410854
aI1441418781
aI431050273
aI431050290
aI329272890
aI329272891
aI554323517
aI418532934
aI6567863
aI1979665998
aI428232278
aI4246091706
aI257498636
aI2424196705
aI3231862370
aI1436700266
aI38751851
aI6639212
aI4304096877
aI6639216
aI6639217
aI6639218
aI97930868
aI63655542
aI6639224
aI6639225
aI6639226
aI6639234
aI4302130819
aI6639236
aI6639239
aI6639240
aI2598129300
aI2432781973
aI5297295004
aI47599262
aI3338292900
aI1464815278
aI8146607
aI8146608
aI3241168570
aI207599564
aI3958001362
aI5175267028
aI353717987
aI82792165
aI430395110
aI4751642351
aI4881207024
aI3214823166
aI351620863
aI564481798
aI353718034
aI38686502
aI38686503
aI38686505
aI4304817985
aI4820258637
aI351620945
aI38686555
aI38686563
aI38686564
aI38686571
aI3813166957
aI772624248
aI4304097163
aI766857101
aI3208531862
aI1465864090
aI766857118
aI766857119
aI766857120
aI351621028
aI351621031
aI4155527081
aI766861982
aI292310966
aI4820389840
aI351686619
aI1436372959
aI418926560
aI2110935011
aI4469837809
aI484331514
aI1855485
aI1436372991
aI4477243396
aI4802498578
aI704532499
aI336023572
aI336023573
aI4802039830
aI336023579
aI567562269
aI336023582
aI336023584
aI38752296
aI336023594
aI351621164
aI348475444
aI63655989
aI336023613
aI336023614
aI336023616
aI766862006
aI1437360824
aI1436307547
aI346902635
aI2111070911
aI4246473797
aI7753857
aI4820390019
aI16928907
aI16928908
aI617369746
aI1436373142
aI766862020
aI226119837
aI351621283
aI351621284
aI1336006
aI3631173805
aI3464188088
aI5781536
aI1436373187
aI4820390100
aI2359709917
aI990597345
aI257511651
aI4802892015
aI6567977
aI376328443
aI3665453781
aI6567979
aI5481451785
aI3594670366
aI854675755
aI4101198132
aI1436307767
aI1436307768
aI2898940229
aI4802892103
aI554324303
aI4820390246
aI1436373364
aI1440305526
aI376328589
aI4550513046
aI353712197
aI1436373411
aI4477706993
aI7819704
aI7819708
aI7819709
aI1270517
aI7819712
aI7819713
aI351621570
aI3571864010
aI1270519
aI376328657
aI376328658
aI6640085
aI6640086
aI6640087
aI6640094
aI6640098
aI6640099
aI465916388
aI6640103
aI1331689
aI1331690
aI1331699
aI1331701
aI1331704
aI1331706
aI2899005950
aI1436373504
aI1331713
aI1331724
aI1331726
aI38752796
aI4802892317
aI3349107230
aI4302787105
aI4302787106
aI1331759
aI317346363
aI317346364
aI376263233
aI376263234
aI376263236
aI6640218
aI6640219
aI6640221
aI6640223
aI257505385
aI317346424
aI1331833
aI317346426
aI1331835
aI797528700
aI1331839
aI1331843
aI1390814016
aI4100274288
aI1336092
aI1331892
aI1436373687
aI1331896
aI1331897
aI1331904
aI1331907
aI1331908
aI3454292678
aI257330636
aI1199330016
aI317346551
aI2994361081
aI39146238
aI317346559
aI3996144384
aI376328969
aI1331993
aI1331994
aI1332000
aI1332003
aI4478882607
aI1629639482
aI317346623
aI317346626
aI317346627
aI317346628
aI317346629
aI317346630
aI317346631
aI787174216
aI376329038
aI38753117
aI38753118
aI1332063
aI1332073
aI1439847283
aI257512310
aI1332088
aI3682358150
aI1332109
aI1332110
aI376329103
aI1440306064
aI82793364
aI156849050
aI1332128
aI226120622
aI317477815
aI317477816
aI317477817
aI317477818
aI317477819
aI317477820
aI317477821
aI789089781
aI1332160
aI317477827
aI317477828
aI317477829
aI1391219656
aI328881099
aI317477837
aI328881104
aI1437225940
aI1332189
aI317477855
aI317477856
aI317477858
aI4105917412
aI1270610
aI6640622
aI6640623
aI6640625
aI317477874
aI317477875
aI6640628
aI6640629
aI6640630
aI6640632
aI6640633
aI6640634
aI6640635
aI6640637
aI6640638
aI6640639
aI6640640
aI6640643
aI6640644
aI6640645
aI6640647
aI6640648
aI6568108
aI1332235
aI6640652
aI5788685
aI6640654
aI6568109
aI4304819219
aI317477913
aI6640666
aI317477915
aI6640669
aI6640670
aI1332256
aI1093751844
aI1332262
aI2119521322
aI1332278
aI317477951
aI317477952
aI317477953
aI317477954
aI317477955
aI317477956
aI317477957
aI317477960
aI699749452
aI317477965
aI1332302
aI3004453972
aI854217819
aI431051872
aI351622245
aI351622248
aI1332336
aI1332338
aI1436323347
aI2274317428
aI1332342
aI4302197881
aI1332347
aI4475868292
aI449598597
aI2107659403
aI2854245516
aI4475802790
aI2990625961
aI4819997869
aI2097406836
aI5788869
aI171463881
aI459756757
aI348673241
aI305379535
aI5082207459
aI3324269797
aI2110870765
aI344741102
aI5788916
aI4820391160
aI3863500037
aI766862210
aI207836433
aI418691
aI4476483801
aI2107200795
aI63693701
aI207836449
aI5788964
aI788288809
aI3349108012
aI5788973
aI2574290485
aI294933859
aI294933861
aI294933864
aI294933865
aI501437816
aI2357745023
aI6641027
aI38753669
aI84891045
aI6641062
aI6641069
aI564483506
aI930370999
aI340153797
aI340153804
aI340153805
aI351604301
aI340153815
aI4802041305
aI340153818
aI854218205
aI340153829
aI2577896
aI340153834
aI4819998188
aI3337967098
aI3352152956
aI351622677
aI351622678
aI3349173795
aI368989734
aI438720042
aI1469666859
aI1017271853
aI351622718
aI4820391494
aI1436374599
aI351622730
aI1476089426
aI3938932309
aI3208861273
aI9786982
aI2643560
aI3366934122
aI257330792
aI4819998329
aI400512653
aI1267344
aI1267346
aI294934176
aI294934177
aI294934180
aI294934182
aI351622826
aI430397104
aI1267381
aI226252471
aI2568509112
aI3240056505
aI317806269
aI4820457161
aI336025296
aI351622865
aI351622868
aI351622872
aI1267417
aI1267418
aI1267419
aI1267420
aI351622877
aI226252511
aI351622897
aI351622900
aI6641398
aI6641399
aI6641400
aI6641402
aI6641403
aI6641405
aI6641406
aI2420922114
aI3710998277
aI6641417
aI6641418
aI1677088523
aI6641420
aI6641421
aI1333009
aI6641427
aI6641428
aI351622935
aI6641434
aI6641438
aI6641441
aI6641442
aI6641444
aI6641445
aI6641446
aI6641447
aI6641448
aI1267504
aI336025409
aI336025412
aI336025414
aI336025416
aI4302736886
aI294934356
aI4304754522
aI766873233
aI336025460
aI336025462
aI336025463
aI2440910721
aI934696839
aI6641547
aI38295436
aI6641549
aI6641550
aI6641551
aI6641552
aI3349174161
aI6641554
aI6641555
aI6641556
aI4802500501
aI3890239382
aI613898135
aI348805021
aI39147427
aI6641572
aI5383935910
aI6641575
aI6641576
aI6641577
aI6641580
aI4469970863
aI1429409439
aI2107201469
aI2991282113
aI412178385
aI4820115855
aI209082325
aI216881134
aI216881135
aI655710200
aI4303443962
aI1436506108
aI317806589
aI368990209
aI1333251
aI1333252
aI4304754696
aI216881161
aI216881165
aI231692306
aI400709656
aI2107470477
aI317478945
aI937908258
aI6641699
aI6641711
aI6641712
aI6641713
aI6641714
aI3338287454
aI431052856
aI4820326459
aI4660680769
aI431052869
aI3099613254
aI431052873
aI336025675
aI336025676
aI3337967698
aI336025697
aI336025698
aI336025699
aI336025700
aI431052910
aI204232816
aI3004431774
aI1267831
aI431052920
aI4488976505
aI336025725
aI336025726
aI336025727
aI336025728
aI336025729
aI336025730
aI336025731
aI336025742
aI336025743
aI336025744
aI336025745
aI1267871
aI3362609318
aI1267879
aI257330888
aI1267917
aI1267918
aI431053015
aI431053017
aI431053018
aI431053023
aI57104608
aI16931047
aI336025846
aI4819998974
aI4820261129
aI1267993
aI501504299
aI4802894130
aI3122354486
aI38735583
aI1268029
aI295000406
aI39147868
aI5351430507
aI3890239861
aI38670060
aI3349567885
aI708467094
aI5656238488
aI1096513
aI257513898
aI171399598
aI1436375474
aI594631098
aI789797308
aI1268157
aI1268158
aI326064577
aI2712885703
aI2606324177
aI612784598
aI4144585176
aI344676830
aI1268201
aI1268205
aI1268206
aI336061525
aI329144835
aI539122187
aI336026127
aI317807122
aI317807123
aI294935062
aI1268247
aI317807131
aI2343655971
aI12933671
aI2596362793
aI329144874
aI336026158
aI336026161
aI336026163
aI336026165
aI4303968824
aI1442994745
aI204233281
aI1268292
aI1333836
aI294935117
aI1333840
aI1333841
aI336026199
aI336026200
aI336026201
aI227433054
aI1470782053
aI1333882
aI1333883
aI4476590721
aI1102404250
aI3001375393
aI1333931
aI1333943
aI3605355201
aI4246035144
aI5015624394
aI1268441
aI1494506212
aI3890240231
aI1334011
aI1334015
aI1334016
aI4819999495
aI1268494
aI4260453148
aI38659515
aI294869801
aI1268528
aI2677758779
aI1268542
aI3137362752
aI347888463
aI2887801682
aI4933704532
aI336061583
aI3890240356
aI1268582
aI4802042730
aI308239212
aI2637257586
aI684678010
aI1268612
aI2274646917
aI642079627
aI82795412
aI82795413
aI2887932822
aI614095768
aI2055297956
aI288963057
aI82795435
aI1268652
aI766873416
aI38700106
aI295001041
aI257331022
aI1268696
aI38755312
aI295001076
aI1436310537
aI1268752
aI294935569
aI1436310560
aI431053859
aI1268774
aI474111017
aI3938737194
aI97934393
aI1268797
aI3351469121
aI74079298
aI6179609670
aI1268808
aI549346378
aI1268820
aI539201380
aI4802501726
aI612981861
aI431086639
aI436886658
aI436886661
aI1303745
aI4820023833
aI3938737313
aI4478557349
aI1268902
aI1268903
aI1268904
aI1268905
aI288775343
aI1429167285
aI38689981
aI4971650238
aI2433113279
aI288775363
aI1437359316
aI1268958
aI2745720035
aI1436310756
aI1436310757
aI317807864
aI317807865
aI3996081417
aI1269005
aI4820131087
aI1269013
aI4820131094
aI4802043170
aI3416612140
aI1269048
aI1269050
aI1269058
aI211705165
aI2606325070
aI431054159
aI431054162
aI5015756115
aI1270871
aI3349962080
aI1269089
aI1269098
aI474111340
aI284757906
aI1271016
aI431054201
aI431054202
aI2441174400
aI17194371
aI17194375
aI5015887240
aI317808012
aI17194381
aI1269135
aI317808034
aI431054254
aI1269190
aI1269191
aI1269193
aI6639235
aI651648475
aI1269230
aI3267649011
aI672947713
aI332422674
aI1785749011
aI5140209174
aI332422683
aI1269279
aI1269281
aI317808177
aI317808178
aI317808180
aI317808182
aI317808183
aI3338244020
aI317808188
aI317808190
aI332422721
aI3675676231
aI317808204
aI317469463
aI537747028
aI317808222
aI3676266083
aI317808229
aI431054440
aI1436835456
aI317808260
aI317808265
aI317808266
aI317808267
aI3940638350
aI317808271
aI317808272
aI317808273
aI317808274
aI317808275
aI317808276
aI1269397
aI317808278
aI1269399
aI1269400
aI1269401
aI317808283
aI294870687
aI317808289
aI317808290
aI1269411
aI1269413
aI317808294
aI317808295
aI3453181610
aI1429167789
aI3802881742
aI1269456
aI1269457
aI637361876
aI930569961
aI317808364
aI317808366
aI317808369
aI317808370
aI317808371
aI317808372
aI317808376
aI1335043
aI317808394
aI4820262670
aI1429167889
aI800612116
aI1662748
aI573595422
aI38690597
aI614096678
aI1436639019
aI1269556
aI1269558
aI351625017
aI317808444
aI1199398717
aI4820131656
aI1269577
aI1269585
aI1335130
aI4479344476
aI1335133
aI1335141
aI1335142
aI1335145
aI603117
aI1335148
aI1335149
aI1335150
aI1339449199
aI610492276
aI1269621
aI351690620
aI351690621
aI351690642
aI4055654294
aI354574232
aI1269665
aI1335202
aI1269671
aI1335208
aI430399409
aI85352383
aI85352385
aI1271115
aI82732364
aI1439653837
aI1269712
aI1269715
aI4476495182
aI1269719
aI4820002127
aI1662942
aI294871019
aI82730990
aI3181273072
aI82730998
aI82730999
aI82731000
aI1269761
aI1269762
aI38690820
aI38690821
aI1269767
aI4477050890
aI3210567694
aI1437229074
aI38690843
aI4819935267
aI696934438
aI1614438441
aI1269807
aI85352496
aI3498074162
aI436887607
aI4820394062
aI2499567702
aI1269850
aI1269856
aI4820263011
aI438722692
aI1269896
aI1269903
aI430399632
aI1436311701
aI1119510679
aI2347917475
aI82731175
aI82731176
aI1269936
aI1269941
aI1335495
aI1335910602
aI1335500
aI1436311760
aI4469383380
aI216883417
aI5017329882
aI4476657883
aI1269981
aI2111070434
aI1269993
aI929587440
aI38691068
aI1335559
aI1335562
aI463298829
aI1270031
aI5015626000
aI1335570
aI1335573
aI1335575
aI1335576
aI1335580
aI1335582
aI1335585
aI1335587
aI1335588
aI1335590
aI616325418
aI2347983157
aI3408355642
aI1270075
aI1270081
aI789537090
aI904052
aI1335636
aI227434848
aI1335651
aI1270121
aI1270130
aI699687291
aI1335688
aI3938738571
aI3938738572
aI1335698
aI1270168
aI4476068249
aI225796507
aI1270172
aI294871453
aI225796510
aI294871455
aI294871456
aI1270177
aI1270178
aI1270179
aI294871462
aI7627181
aI3594478006
aI463452916
aI1288593854
aI1335750
aI1335751
aI612842231
aI1335759
aI4873150928
aI1335764
aI1335771
aI1335773
aI3337970143
aI1335779
aI1335781
aI3584713190
aI1335783
aI105603566
aI1270260
aI1270261
aI348348932
aI351625733
aI1270278
aI1270279
aI351625737
aI3938673172
aI3725353497
aI1335834
aI1335835
aI2790482470
aI1270312
aI1270313
aI2424594986
aI1270315
aI1270317
aI1270318
aI295002673
aI295002675
aI1335876
aI1436312136
aI1335885
aI351604835
aI563634772
aI1270362
aI1270363
aI1270371
aI1270372
aI1096465
aI766861932
aI766861933
aI766861936
aI766861937
aI766861938
aI766861939
aI766861940
aI766861942
aI85353085
aI4345717382
aI1270414
aI1270415
aI1270416
aI1270417
aI1270422
aI1270428
aI766861981
aI1436377758
aI766861983
aI1270443
aI38691506
aI38691507
aI1334665910
aI1270455
aI766862008
aI766862009
aI766862010
aI766862011
aI766862013
aI766862014
aI766862015
aI766862016
aI766862017
aI4238697154
aI3127403204
aI766862021
aI1270470
aI1436312263
aI5353530061
aI1336015
aI4302594773
aI418535
aI418536
aI3349766890
aI1270507
aI1270512
aI1270513
aI418547
aI418548
aI418549
aI1270518
aI418551
aI418552
aI1270522
aI418559
aI418560
aI418561
aI418562
aI418564
aI418565
aI418566
aI418570
aI418572
aI418574
aI2545640208
aI418581
aI418583
aI418584
aI418585
aI418586
aI418588
aI418589
aI2790482718
aI1479041828
aI3545370758
aI1336105
aI1270574
aI332566664
aI759653171
aI350741985
aI1270607
aI1270608
aI6187934545
aI3585893202
aI854287194
aI3312804711
aI3826540
aI3826541
aI2596561774
aI3209192306
aI3337839486
aI1270655
aI418689
aI418690
aI1270659
aI418695
aI2887934856
aI418697
aI646210442
aI495767
aI418708
aI274097046
aI225993624
aI2538310
aI274097062
aI1270700
aI1270702
aI1270703
aI3128124342
aI38691774
aI1270721
aI4476330955
aI2097701837
aI1270749
aI1270767
aI1270768
aI1270769
aI5792760
aI5792765
aI5792767
aI2198823952
aI5792787
aI1270808
aI1270809
aI1270812
aI3826717
aI1270814
aI1270817
aI614097963
aI4519257139
aI63683422
aI4802503736
aI610755652
aI7781217
aI538731607
aI4251608154
aI1436378204
aI854253137
aI1270903
aI1270915
aI1270925
aI431045485
aI1270929
aI1270932
aI1270933
aI4820133029
aI38692013
aI3597034674
aI1270963
aI4846412984
aI448816323
aI3868878023
aI1271008
aI1271010
aI1271014
aI1271015
aI1436378344
aI1271021
aI3826930
aI317809907
aI3890308349
aI294872323
aI294872324
aI336028942
aI4106118415
aI1608934674
aI359917104
aI2056283431
aI317809973
aI938173752
aI708535613
aI84895038
aI317504395
aI3453117765
aI82732361
aI82732362
aI82732363
aI4868433228
aI1271117
aI1271119
aI696935762
aI38692181
aI1436378455
aI225797468
aI1315046
aI3827048
aI3081201019
aI3337839998
aI3931792768
aI225797509
aI1271175
aI1271188
aI1271190
aI3675743639
aI708535706
aI1271213
aI1271215
aI1271216
aI1271217
aI1436378553
aI3299567034
aI4478494145
aI4304823752
aI351626707
aI351626708
aI1271254
aI484206044
aI1271263
aI351626722
aI155499430
aI2594137574
aI1271271
aI1271272
aI317471655
aI5771519
aI351626756
aI38692359
aI38692360
aI4587218447
aI1271316
aI3083757078
aI4820002342
aI4820395564
aI436889144
aI258762301
aI1271358
aI295003712
aI1271361
aI330262087
aI38692427
aI1271373
aI1271376
aI697394769
aI3585173081
aI336062054
aI1271422
aI1271423
aI1271432
aI32007818
aI336029330
aI2898880161
aI2863490728
aI1271465
aI1271469
aI1271474
aI1271479
aI1271484
aI288908994
aI624518862
aI288909015
aI1390896856
aI1271516
aI4217136868
aI376858341
aI1271529
aI1271530
aI1271539
aI32007935
aI32007936
aI32007941
aI227436294
aI3362744071
aI5793545
aI227436300
aI1271578
aI1271583
aI1271590
aI227436327
aI1271594
aI924411698
aI227436341
aI4181747525
aI1271631
aI1271116
aI1271638
aI1271639
aI1271640
aI5924698
aI410740576
aI2858248034
aI38692711
aI4820854636
aI5435123346
aI485231
aI2912444829
aI5793653
aI485241
aI32008061
aI1271681
aI1271683
aI1271684
aI1271688
aI1271694
aI227436437
aI227436439
aI351627172
aI1271728
aI1271731
aI1271732
aI1271734
aI1271735
aI3802807284
aI1271741
aI1271744
aI1436379073
aI2565498819
aI854812624
aI4246497242
aI1271783
aI7781372
aI1271794
aI1271798
aI3660277760
aI227436553
aI227436554
aI2713479189
aI1271832
aI2887477273
aI1271834
aI2095834799
aI1271836
aI1304240
aI1271843
aI3631179812
aI129143132
aI1391159347
aI4820854840
aI1271876
aI1271877
aI1271878
aI1271879
aI1271880
aI17983564
aI3470682190
aI7781389
aI38692944
aI38692945
aI1271892
aI1271893
aI1271895
aI1271896
aI3827803
aI3827804
aI3827805
aI3827809
aI2893768826
aI1271934
aI1271935
aI1271936
aI1271937
aI1271938
aI4820461702
aI1271956
aI351627419
aI788315163
aI351627428
aI1271992
aI1271993
aI351627454
aI1272001
aI3938740422
aI38693064
aI353790155
aI351627471
aI351627476
aI351627477
aI1429170390
aI294949241
aI1272025
aI3938740449
aI400451810
aI1272042
aI1272043
aI1272044
aI1436313838
aI1272048
aI2515429618
aI1272056
aI1272058
aI682242
aI647588099
aI682246
aI351627529
aI682254
aI682255
aI682256
aI5069302039
aI682268
aI682271
aI2108188960
aI1272097
aI682274
aI682275
aI346908964
aI682278
aI682281
aI3207817516
aI351627576
aI1920012683
aI708471108
aI682311
aI682312
aI328886602
aI682315
aI682316
aI682318
aI3938675025
aI682322
aI1272150
aI1272151
aI1272152
aI1272155
aI682332
aI1272159
aI1272160
aI682337
aI2796972389
aI682343
aI1272168
aI1272169
aI1272170
aI682348
aI1272174
aI4820003183
aI3630655861
aI2149083515
aI682370
aI682371
aI682375
aI5476673928
aI682383
aI682385
aI682391
aI1272216
aI682394
aI682395
aI682396
aI227436959
aI682401
aI682406
aI3890244007
aI682409
aI682415
aI682417
aI336030135
aI6285257156
aI682441
aI336030154
aI682454
aI682456
aI682460
aI682465
aI682467
aI682476
aI682478
aI682480
aI4820134385
aI4820003318
aI682489
aI231500289
aI336030210
aI38693395
aI1697540
aI682526
aI336030257
aI336030258
aI336030260
aI5777330612
aI207776314
aI376334910
aI4304169535
aI422082
aI4475873866
aI336030283
aI336030287
aI449604178
aI336030291
aI336030292
aI4820134488
aI759655002
aI4303907427
aI336030339
aI336030340
aI336030341
aI1436510856
aI484207241
aI2596104845
aI336030350
aI336030351
aI336030352
aI336030353
aI1272466
aI1272467
aI336030356
aI4301941405
aI32056128
aI4820134564
aI3349572261
aI1272487
aI1272489
aI1272491
aI1272492
aI3739380398
aI1272497
aI336030391
aI2856938174
aI336095942
aI4303317706
aI4303317707
aI4144523980
aI38759120
aI38759121
aI4519193320
aI1271591
aI1436510966
aI46295811
aI1272584
aI1272586
aI1272588
aI1272589
aI1272590
aI3338562320
aI1272595
aI1272596
aI1272597
aI682775
aI1272600
aI1272601
aI1272602
aI1272603
aI1272604
aI1272605
aI682782
aI2616945439
aI682785
aI2622319394
aI1272611
aI1272613
aI682790
aI682791
aI682795
aI682797
aI682801
aI682803
aI682806
aI3488049975
aI682808
aI490761020
aI84896577
aI1272650
aI4304169803
aI1272652
aI1272653
aI1272656
aI1272657
aI539192146
aI682838
aI682839
aI682840
aI1272665
aI682843
aI1272668
aI682845
aI682847
aI682850
aI1272675
aI682852
aI682853
aI1272678
aI682855
aI682857
aI682858
aI5477962215
aI682860
aI682861
aI2107206511
aI4820134769
aI3349179250
aI4820265848
aI1203792763
aI708537212
aI4233784189
aI3550505857
aI484315627
aI2698472324
aI7760773
aI4181692908
aI4820200330
aI4478561168
aI4820134805
aI2032167832
aI2994236318
aI4820134821
aI5457996711
aI5655258253
aI800615352
aI2054974398
aI1755147216
aI635988945
aI1806789590
aI5118782424
aI1272794
aI336030691
aI682981
aI682982
aI4825181162
aI3602803706
aI3828738
aI17983318
aI3337972745
aI2197515274
aI1272843
aI336030732
aI1272845
aI1272846
aI4476462938
aI345795624
aI2903927854
aI332491824
aI3337972792
aI1272889
aI1272891
aI3738987584
aI1272899
aI17525841
aI436890715
aI3828835
aI3828837
aI1272934
aI3828839
aI1272936
aI383020137
aI3828846
aI228617354
aI228617356
aI1272980
aI1272981
aI3890308981
aI1273026
aI1273027
aI3351473350
aI683208
aI372620492
aI4820135116
aI4304825559
aI228617434
aI228617435
aI1338589
aI1338590
aI1338593
aI1338594
aI1338595
aI1338596
aI4820200679
aI1338600
aI3828970
aI5015681460
aI345801871
aI1273074
aI1338611
aI1338612
aI3828981
aI1338614
aI1338615
aI1390853332
aI317484282
aI317484283
aI317484284
aI1273086
aI317484287
aI317484292
aI317484293
aI1338630
aI1338631
aI317484296
aI3829001
aI3829004
aI317484304
aI1436314898
aI6296268057
aI317484322
aI3242683686
aI1747545384
aI1273129
aI1273130
aI1273131
aI486702
aI317484335
aI486704
aI3829041
aI486707
aI486711
aI3829048
aI317484356
aI1273180
aI4802506090
aI4802506091
aI1273215
aI400452999
aI400453005
aI306867599
aI400453008
aI486805
aI4820135318
aI317484439
aI3829148
aI486816
aI3829155
aI486820
aI486821
aI486826
aI486827
aI4873940397
aI3829166
aI317484464
aI1273269
aI3829174
aI1273274
aI228617662
aI6641553
aI3829186
aI420113876
aI1439722967
aI1273307
aI2596498917
aI998338022
aI36400624
aI1338868
aI1338879
aI1338880
aI1338881
aI3890245122
aI1338895
aI1666577
aI538734099
aI1338901
aI1338903
aI1338904
aI400453148
aI1666591
aI199061027
aI317484582
aI1338920
aI1338923
aI486956
aI486957
aI486958
aI400453167
aI486961
aI228617778
aI228617779
aI351638110
aI4820201016
aI1338945
aI484490507
aI1338948
aI1338949
aI1429596087
aI1338957
aI681913
aI448753242
aI448753243
aI1273445
aI1273447
aI1666667
aI1273453
aI4302794361
aI1304325760
aI400453250
aI1273489
aI351627203
aI1273494
aI1273499
aI3829418
aI3829428
aI3767103160
aI1273532
aI421565
aI421569
aI421571
aI421574
aI1339082
aI2097704652
aI1339089
aI421587
aI3829460
aI1339095
aI421592
aI1273561
aI2781769438
aI3976163041
aI1273582
aI3365105394
aI1339123
aI3983568629
aI1339142
aI1339145
aI3338170129
aI564444462
aI4489441049
aI4489441050
aI1273627
aI1273629
aI1273631
aI294940450
aI1273636
aI294940454
aI294940456
aI337866550
aI1437822781
aI3829567
aI3829576
aI2197057358
aI3829598
aI2275635043
aI1273710
aI329150319
aI3233509240
aI1273723
aI487295
aI4820201363
aI2648797078
aI258764698
aI3866849185
aI351649094
aI227438512
aI4802506677
aI336031679
aI797798348
aI1273805
aI1273811
aI487385
aI854224858
aI4441731036
aI487390
aI487391
aI487397
aI487399
aI487402
aI487403
aI487404
aI1428385774
aI487407
aI318402547
aI1273844
aI1273845
aI2136305654
aI1273853
aI1273854
aI317504855
aI2063036434
aI1273891
aI1273895
aI337866794
aI1273903
aI1273904
aI332490761
aI4152782904
aI4195708987
aI4550520892
aI1438281800
aI227438671
aI1273937
aI1273938
aI4373508182
aI4304105559
aI1979084905
aI4246106222
aI487535
aI487538
aI487541
aI487545
aI1273978
aI1273979
aI487548
aI1273983
aI708538496
aI371617923
aI4478627980
aI3829903
aI199061648
aI1271833
aI257388708
aI422053
aI1274022
aI422055
aI3829928
aI1274030
aI257388720
aI422069
aI3829942
aI1274039
aI1274046
aI422080
aI1339585
aI400453826
aI422084
aI422087
aI400453832
aI1339593
aI422090
aI2544726219
aI257388748
aI1339600
aI1339602
aI2136041507
aI3349180629
aI1339608
aI1274073
aI32076007
aI4820136172
aI1274095
aI1274096
aI1617326321
aI449625470
aI2671538428
aI3890639102
aI257388799
aI1807062
aI1274122
aI1339662
aI854225169
aI257388821
aI257388822
aI257388823
aI257388824
aI257388826
aI257388827
aI257388830
aI2197319976
aI1274163
aI1274164
aI257388874
aI257388875
aI257388876
aI257388878
aI704541013
aI1274203
aI1274204
aI1274214
aI1339756
aI854225269
aI294875515
aI1274238
aI17985921
aI1339785
aI1339787
aI1339788
aI1339789
aI1274255
aI1339794
aI1339795
aI1339798
aI1339799
aI3571937688
aI3365958041
aI1429172637
aI4820267435
aI1429172657
aI1274291
aI1274293
aI1274298
aI4820136386
aI4623331783
aI1271884
aI7781210
aI5137002965
aI1274338
aI4232802794
aI276676007
aI32076268
aI376271342
aI336030282
aI4156322293
aI376271362
aI376271363
aI376271364
aI347828743
aI347828744
aI2274325037
aI1437037104
aI3890573873
aI3349770808
aI2595975743
aI38736651
aI32076357
aI32076358
aI1274445
aI5796432
aI3349181012
aI2196861526
aI2274652759
aI5796441
aI5796442
aI294941277
aI294941279
aI294875747
aI1157526117
aI3550179949
aI2197516923
aI30271595
aI4820005509
aI1340045
aI1340060
aI1274531
aI9925290
aI4304106162
aI4478563006
aI4820136643
aI1274567
aI1274569
aI1274572
aI1274575
aI4246475556
aI2055631589
aI798454510
aI2159964912
aI1274615
aI1340153
aI1592161018
aI1340155
aI1340156
aI3938677503
aI3872551682
aI2097640209
aI1340179
aI3938677536
aI1436775206
aI4802492155
aI336032553
aI1340205
aI1340206
aI3573379894
aI5796665
aI5796666
aI854225729
aI1340229
aI3209065292
aI370130402
aI4820136784
aI1274705
aI1274706
aI1274707
aI1340249
aI317485915
aI2343531369
aI1340275
aI46887796
aI1340278
aI3676661908
aI4820136827
aI1274749
aI1274753
aI1320448899
aI4304106373
aI4820136839
aI257408495
aI5373129631
aI6648741
aI1199403944
aI6648746
aI6648747
aI6648748
aI6648750
aI6648751
aI6648752
aI6648753
aI6648754
aI6648755
aI6648756
aI6648757
aI1340344
aI1340355
aI1340356
aI1274841
aI1274843
aI1274844
aI1340385
aI1340388
aI1340389
aI1340396
aI1390834671
aI336032761
aI4167922683
aI1340414
aI1340416
aI4195709955
aI336032772
aI336032777
aI1340427
aI1340431
aI1340441
aI3998905372
aI3998905373
aI1340448
aI564425762
aI1340452
aI1340463
aI1274930
aI1274931
aI336032827
aI4304106559
aI1464890438
aI1274951
aI788296792
aI1340505
aI8055714
aI1340515
aI1274980
aI1274981
aI1274988
aI1274989
aI1340528
aI1340529
aI1340530
aI3231085687
aI1340546
aI1340548
aI491746440
aI294941834
aI257408535
aI2056942732
aI1340558
aI845968527
aI1275025
aI1275026
aI449803416
aI1340570
aI410743968
aI284783779
aI284783781
aI1340598
aI1340599
aI257408543
aI1275068
aI280018467
aI280018468
aI4357780704
aI336051750
aI266695914
aI2134602989
aI400451796
aI351627478
aI1340678
aI1304524039
aI1340682
aI3852953815
aI4820137231
aI1275154
aI1340692
aI1275158
aI4302599449
aI1275171
aI4820268324
aI317486378
aI4566447404
aI3938678064
aI38649395
aI317486392
aI317486393
aI1340742
aI1340743
aI3631314252
aI1340749
aI317486420
aI317486421
aI317486422
aI317486423
aI317486424
aI317486425
aI1340762
aI3718608226
aI4486296931
aI1221162347
aI1275244
aI317486445
aI227439987
aI1436368446
aI1340791
aI1340792
aI1340793
aI1340794
aI317486459
aI3936580988
aI1340799
aI317486464
aI1340806
aI4820137356
aI1275283
aI1275284
aI317486498
aI317486499
aI317486500
aI317486501
aI317486502
aI317486503
aI2420929961
aI317486514
aI2978903478
aI2863625659
aI317486525
aI317486527
aI6569547
aI4478549581
aI3571807696
aI351627512
aI341341652
aI4820137445
aI4820137454
aI1340913
aI317486589
aI682243
aI2441377300
aI1340967
aI8746543
aI563574327
aI1275448
aI418870843
aI32077372
aI257390142
aI927757887
aI4820137538
aI84899412
aI854750805
aI124610831
aI32077416
aI32077419
aI257390200
aI8055060
aI4820137594
aI4820137595
aI1326698
aI8055061
aI4469913217
aI317486724
aI124610839
aI1275535
aI1275536
aI1275537
aI451311257
aI2148955809
aI3682498210
aI1341094
aI4820137642
aI153872670
aI1436346655
aI1275580
aI682272
aI1272098
aI1458705361
aI3890538792
aI1470461682
aI330266357
aI934734121
aI257390331
aI3660048682
aI4304041727
aI4081219342
aI1341213
aI3231086370
aI336051846
aI418740012
aI1464694585
aI84899647
aI1390835522
aI7305032
aI4820072284
aI13006715
aI1734526
aI1734528
aI4497569665
aI3852957575
aI336051863
aI704477068
aI1463973777
aI734295954
aI682307
aI224753559
aI1436514210
aI3083499443
aI590641088
aI336033730
aI98990030
aI4820072401
aI4486363098
aI699824091
aI1470920670
aI98990047
aI418871274
aI336033773
aI1436514286
aI1734640
aI438925298
aI336033779
aI336033780
aI6569641
aI1734648
aI336033788
aI336033795
aI336033796
aI1341445
aI1436514310
aI17135623
aI4820072458
aI3631183884
aI257390605
aI2859198808
aI336033811
aI4820138006
aI257390619
aI431781938
aI368736307
aI4737955898
aI1341509
aI956332103
aI4820138060
aI368277587
aI719863481
aI2343794781
aI336033887
aI4303255652
aI4820138090
aI317487213
aI317487214
aI2567993455
aI3814094962
aI336033908
aI4820138112
aI4302010499
aI1272172
aI3660609678
aI3650320528
aI3550378130
aI1272175
aI3366090909
aI82754515
aI82755269
aI2671605921
aI4469979301
aI930379943
aI317487291
aI257390781
aI317487297
aI5411731657
aI17004754
aI2056419541
aI618821851
aI4197480675
aI491813094
aI536493777
aI368736489
aI257390828
aI257390829
aI257390846
aI4820072706
aI257496108
aI3230890260
aI317487383
aI1341724
aI317487402
aI682376
aI1319794997
aI1341768
aI2343401803
aI788167004
aI1341795
aI3338303846
aI363428200
aI283670898
aI4820072821
aI644879424
aI3938744706
aI5465274759
aI1272215
aI13007253
aI3251992992
aI4820072867
aI6912420
aI4469979560
aI352483761
aI4820072882
aI3431823797
aI2849213
aI4477188546
aI1160739267
aI2110421459
aI84900328
aI1272231
aI3453254128
aI3873012213
aI2349496822
aI1515551226
aI4304108028
aI4820072958
aI227441151
aI13007363
aI4820072969
aI317487630
aI4477516312
aI227441183
aI349141543
aI30636586
aI13007409
aI13007410
aI1735230
aI2787277392
aI1918728792
aI3890182749
aI225999455
aI2849377
aI227441257
aI227441259
aI1436514925
aI2849391
aI2849392
aI2849400
aI2849401
aI2849409
aI2849415
aI3938744979
aI681910
aI317487770
aI317487773
aI446200481
aI1332224
aI324106919
aI317487785
aI3890307464
aI351632055
aI228686520
aI4478827198
aI225809525
aI317487814
aI317487821
aI2097248986
aI317487839
aI317487841
aI317487852
aI317487855
aI1759410941
aI1438284551
aI3938745108
aI317487898
aI3682630441
aI798456619
aI2849585
aI4820138803
aI3832630
aI3832631
aI284785468
aI3832640
aI2849604
aI1429175111
aI431035532
aI2849615
aI3890183003
aI2787015531
aI2110684013
aI82738033
aI82738034
aI82738035
aI82738036
aI82738037
aI351660525
aI431035546
aI3550509982
aI294772026
aI4304082080
aI4153244619
aI4820134393
aI351605925
aI4478827491
aI2849765
aI4304698343
aI2097249259
aI4820270069
aI227441659
aI4303322111
aI977501186
aI4153506824
aI2849804
aI318405651
aI4302601280
aI491420737
aI4478506170
aI704543854
aI4153310324
aI449805433
aI3539631232
aI3648879750
aI2055240840
aI219245081
aI1436384408
aI3375791266
aI1429175461
aI2597196999
aI4820073645
aI934771887
aI336034992
aI4142759100
aI4820073668
aI351632603
aI351632606
aI30768355
aI336041169
aI418741486
aI4477517044
aI317488373
aI317488374
aI4699356413
aI219315461
aI567597
aI1342749
aI3349183774
aI317488418
aI1342755
aI4820139301
aI854245255
aI4820073776
aI704544056
aI317488449
aI317488450
aI3349118276
aI4820204869
aI4820204870
aI317488459
aI317488460
aI317488461
aI4820073807
aI317488481
aI317488482
aI317488486
aI317488487
aI4820073833
aI4820073834
aI4304108913
aI4820139381
aI4820073848
aI317488506
aI317488507
aI317488508
aI317488510
aI317488511
aI317488512
aI3349183882
aI3338370445
aI4820073870
aI3338239375
aI317488529
aI317488530
aI317488532
aI4820794786
aI4820139430
aI32079278
aI32079279
aI1342901
aI3890244170
aI317488578
aI317488580
aI4820139461
aI317488583
aI317488584
aI2850251
aI4302771449
aI2850267
aI1437433310
aI317488607
aI317488611
aI2274917864
aI317488629
aI317488630
aI317488632
aI317488633
aI317488634
aI317488636
aI317488637
aI317488639
aI3231153670
aI627969
aI317488653
aI317488655
aI759594512
aI317488657
aI704544280
aI317488665
aI317488667
aI317488669
aI1343006
aI317488674
aI1345551912
aI258702890
aI317488690
aI317488691
aI3337977400
aI317488701
aI317488702
aI317488703
aI317488704
aI4082990664
aI38698581
aI344751704
aI2850401
aI2850405
aI2850406
aI2850407
aI2850408
aI1205436009
aI2850410
aI2850419
aI2850420
aI4820139637
aI1343094
aI63733369
aI2850427
aI4135091837
aI4820074114
aI2850436
aI38698635
aI38698636
aI2893774477
aI2850451
aI82804372
aI351633051
aI82804380
aI4217339556
aI38698662
aI38698663
aI38698664
aI38698665
aI38698666
aI38698667
aI38698668
aI156597936
aI367886004
aI4820074200
aI4479483611
aI367886055
aI257333198
aI367886057
aI367886058
aI367886059
aI367886060
aI367886061
aI367886062
aI367886063
aI367886064
aI367886065
aI367886067
aI3313598202
aI3584786183
aI1343240
aI4820139798
aI3251994396
aI1343266
aI308510499
aI4479156012
aI2697953085
aI4938563404
aI4820008783
aI536837968
aI793214814
aI4489117542
aI4820139883
aI336030354
aI4820074350
aI3084812146
aI336030355
aI4820139892
aI317341673
aI554319851
aI3938680714
aI3593961356
aI2071166884
aI4820139951
aI258621427
aI38698948
aI2113109958
aI4469325775
aI2347663322
aI38698971
aI38698972
aI333938655
aI4142563304
aI317483687
aI336035825
aI336035835
aI336035837
aI336035840
aI317472768
aI934379522
aI317483691
aI1343492
aI1437827083
aI5115314188
aI336035855
aI1809612824
aI1343516
aI333938737
aI4820140083
aI1343560
aI1343568
aI1343569
aI258768984
aI317489255
aI317489256
aI3938877552
aI317489268
aI31031413
aI317489270
aI317489271
aI317489272
aI4820140159
aI3305996421
aI317489289
aI317489292
aI317489293
aI317489295
aI3915808921
aI4486103195
aI13009071
aI13009073
aI13009074
aI4820140214
aI333938877
aI2972287166
aI4820074688
aI227442887
aI2107146440
aI13009100
aI4302667995
aI333938908
aI3001881978
aI13009126
aI318406889
aI82739440
aI227442931
aI284786938
aI284786939
aI2107343102
aI82739460
aI82739463
aI32080138
aI318406929
aI1343766
aI1343767
aI2671870240
aI400785697
aI1343782
aI1343783
aI1343784
aI866746667
aI704479537
aI7110962
aI1343809
aI1343811
aI1343816
aI708542796
aI1343825
aI5824151896
aI991330658
aI400916836
aI115245415
aI284787048
aI369721705
aI328892793
aI227443080
aI227443087
aI1343891
aI13009313
aI38699430
aI38699431
aI1343916
aI376340911
aI1343930
aI38699454
aI2851263
aI38699456
aI4678123969
aI2851266
aI3630727628
aI38699470
aI38699471
aI38699472
aI4821123539
aI369721816
aI2851289
aI3938877916
aI2851293
aI2851306
aI778600943
aI3383067123
aI336036379
aI336036380
aI336036382
aI336036383
aI336036386
aI336036388
aI336036389
aI4802904615
aI369001004
aI336036419
aI336036420
aI3231154757
aI336036446
aI2275246689
aI788431475
aI2851446
aI2851448
aI2851449
aI2851455
aI47743624
aI4303323785
aI3338306187
aI2796978831
aI2851473
aI376341142
aI308118170
aI308118177
aI2851490
aI2851491
aI651854500
aI4820140717
aI333939374
aI4853099293
aI294879925
aI682786
aI1390772944
aI4820140755
aI7111391
aI1272614
aI1282376430
aI3890709232
aI167674627
aI4802904854
aI934445859
aI2851625
aI2851626
aI1343208
aI1436386094
aI2851636
aI2851638
aI317489978
aI294880060
aI2851651
aI1464042314
aI2851659
aI501449548
aI2851662
aI317489999
aI317490000
aI2851667
aI2851675
aI2851676
aI4302668637
aI351634285
aI294880110
aI351634289
aI294880116
aI351634303
aI351634304
aI351634307
aI294880136
aI317490070
aI5777359786
aI167674799
aI3312092085
aI1319797688
aI332432314
aI1272651
aI3231024074
aI1329890255
aI501449681
aI4013654997
aI789152728
aI38700020
aI317490165
aI317490166
aI317490168
aI351634425
aI13272059
aI2851836
aI2851837
aI336036862
aI336036863
aI336036864
aI2851843
aI336036868
aI336036869
aI1319797767
aI2851849
aI2851850
aI3812918283
aI2851852
aI2851854
aI336036879
aI336036880
aI336036881
aI336036882
aI2851862
aI2851863
aI2851866
aI708477979
aI2096989215
aI799179809
aI351634467
aI2851881
aI348423212
aI336036920
aI5303534650
aI317330954
aI38700099
aI4820075588
aI38700101
aI4303127622
aI351634503
aI16913932
aI351634506
aI38700108
aI2197515106
aI682851
aI351634517
aI351634518
aI167674968
aI1272676
aI1272677
aI682854
aI351634534
aI1272679
aI351634543
aI38700146
aI369001592
aI3719632406
aI1101628550
aI1438221455
aI682863
aI1437107365
aI2852021
aI13010104
aI2107671737
aI318473412
aI4820075718
aI2852040
aI2852041
aI3583149260
aI2852045
aI4083385550
aI2852051
aI2852052
aI4304897238
aI227459279
aI227443932
aI789152995
aI2852069
aI4303979754
aI13010155
aI6653170
aI227443971
aI38700292
aI4083029548
aI3725231375
aI4303324432
aI1437435158
aI13010206
aI3454829863
aI38700336
aI38700337
aI1272714
aI17503797
aI13272411
aI336037212
aI2852191
aI336037216
aI336037217
aI336037219
aI336037225
aI2852206
aI1199736176
aI336037235
aI2852215
aI336037245
aI295005077
aI4820075906
aI4802905480
aI2852233
aI4802905484
aI4302800273
aI4820338068
aI4820338069
aI2852246
aI351634839
aI3996026271
aI336037285
aI1273397
aI4820075950
aI930710959
aI4217669046
aI308118972
aI2055570877
aI2279507394
aI778601926
aI4802905544
aI3128133068
aI4817061325
aI309364175
aI309364176
aI63735252
aI317490645
aI4820076013
aI38700564
aI699827773
aI2852418
aI16914018
aI13010515
aI2852436
aI3938682457
aI484017765
aI484017770
aI351650066
aI539356093
aI2643691125
aI2527757944
aI484017787
aI4820076161
aI16914028
aI208307852
aI2893710991
aI1672853
aI2111669913
aI16914031
aI3938682527
aI4820076204
aI988786
aI16914035
aI3463939774
aI4820076223
aI4820338371
aI4820076231
aI351635150
aI4303390419
aI1672921
aI2852570
aI2852571
aI2852572
aI2852575
aI2852577
aI351635172
aI2852587
aI1672944
aI1672945
aI3684140789
aI288786171
aI4820076287
aI4820338434
aI337872643
aI3675686663
aI6653711
aI6653713
aI1979746068
aI1672990
aI3890186029
aI337872686
aI772638512
aI4820076342
aI2671740732
aI4302800702
aI4820010836
aI4913858409
aI3463743341
aI2990442352
aI4469327742
aI231507855
aI369002391
aI3702294428
aI554338230
aI554338231
aI4477585338
aI4820076494
aI3514428408
aI1006602194
aI564496339
aI1436369231
aI1437894623
aI2016446444
aI5347379182
aI2107213808
aI5015767025
aI1436387322
aI4489316348
aI3605497855
aI4820076565
aI635668502
aI376211495
aI376211496
aI376211497
aI1436387371
aI3938682936
aI5116299323
aI400496309
aI16914102
aI2898888776
aI376211538
aI376211539
aI351635545
aI2801698909
aI4820076642
aI4469327972
aI258705513
aI642353262
aI334006408
aI4820076688
aI2801698964
aI600869017
aI967805088
aI4820076711
aI2107738283
aI3811608760
aI3299641544
aI3001911498
aI182814928
aI3571484904
aI3938748659
aI363694326
aI778602750
aI448760066
aI2107214088
aI351650178
aI564496659
aI4304177436
aI1420003623
aI565057245
aI332422675
aI124619059
aI124619063
aI927893816
aI4820011337
aI854092856
aI227445074
aI2698807643
aI600869212
aI4469393757
aI4469393758
aI4246047071
aI778602858
aI277449078
aI277449079
aI277449080
aI277449081
aI3863382395
aI3625290109
aI46296128
aI4094658952
aI3737553297
aI3938879895
aI2431551898
aI326404524
aI1673648
aI1673659
aI647596483
aI929532357
aI924486088
aI4011755981
aI4302211539
aI2006550997
aI1426622935
aI4820233297
aI590638613
aI336038396
aI6296865278
aI351635981
aI1469549070
aI766872093
aI2887748136
aI336038441
aI766872109
aI336038455
aI351701561
aI463440447
aI766872129
aI2197654082
aI351701572
aI766872141
aI5068065359
aI336038484
aI336038487
aI336038488
aI610044506
aI766872157
aI351636062
aI351636063
aI351636064
aI514820708
aI766872170
aI766872184
aI766872187
aI766872189
aI1902348936
aI602901133
aI4491856352
aI336038551
aI336038557
aI336038558
aI2031585951
aI336038560
aI336038561
aI351636136
aI12946095
aI257329842
aI257329843
aI351636149
aI257329846
aI257329847
aI257329848
aI257329849
aI1390840508
aI351636167
aI336038602
aI336038608
aI4802120401
aI119376598
aI336038615
aI104696537
aI329157340
aI449612510
aI227445471
aI336038631
aI4820011766
aI336038648
aI351701759
aI9800448
aI9800449
aI3676408579
aI336038663
aI336038666
aI288787212
aI288787213
aI334007055
aI336038688
aI336038691
aI336038696
aI4820222428
aI347769642
aI336038701
aI2671741742
aI336038708
aI4304833349
aI5482056535
aI332565348
aI87264102
aI1436325693
aI55217011
aI4820339572
aI227445625
aI227445627
aI4820274057
aI330337178
aI4820077486
aI3938749359
aI336038842
aI294816703
aI294816706
aI294816712
aI294816714
aI294816715
aI294816718
aI225807313
aI3457977301
aI491752408
aI4304767974
aI5015768050
aI257330167
aI3605498876
aI4302670858
aI17504087
aI227445777
aI227445778
aI4820077588
aI794070039
aI336038941
aI1094507
aI227445811
aI2994441279
aI336038976
aI82742338
aI82742339
aI336038987
aI4156787789
aI294816857
aI294816858
aI294816859
aI2274921565
aI294816862
aI336039008
aI294816869
aI4820274279
aI4802514029
aI4713385074
aI539069560
aI337874048
aI337874049
aI1429179525
aI798526613
aI4303326359
aI257395871
aI257395872
aI1273030
aI484215981
aI351636655
aI1273032
aI257395892
aI2274790591
aI351636672
aI4304112836
aI257395909
aI351636680
aI207916233
aI257395914
aI1429179595
aI1429179596
aI350588109
aI1338926
aI1676250332
aI288787678
aI4469329136
aI257395954
aI587042038
aI708469444
aI257395975
aI257395976
aI257395978
aI257395979
aI257395980
aI288787745
aI257396002
aI4303392046
aI2274790707
aI3938749757
aI351636799
aI2197523778
aI2192338147
aI734367061
aI2601422167
aI708480354
aI257396068
aI257396075
aI601132397
aI3338243438
aI759590120
aI288787841
aI4070993131
aI5685677450
aI337874337
aI384601507
aI973311403
aI1338610
aI3828979
aI1732414902
aI4820200692
aI257330634
aI257330635
aI1436323276
aI257330637
aI1273081
aI4302736858
aI564497886
aI3828990
aI2055507446
aI347770360
aI4352675336
aI5100834323
aI4802842149
aI5128031787
aI3934096941
aI4893347381
aI2595786312
aI851217999
aI257333177
aI2568523361
aI2238221923
aI227394150
aI255692392
aI1436323439
aI181833333
aI4302737021
aI226266753
aI30788541
aI766873226
aI766873227
aI766873228
aI766873231
aI295014033
aI766873236
aI4820157039
aI793218718
aI1429573284
aI4477587134
aI766873286
aI766873287
aI653496008
aI257330889
aI257330890
aI257330891
aI257330892
aI1273122
aI32085966
aI336039641
aI4246441690
aI699829979
aI257330928
aI1479053050
aI4802252539
aI1319472894
aI486699
aI655986447
aI655986452
aI317484334
aI486703
aI699830048
aI655986467
aI655986468
aI317484337
aI2381680428
aI38637370
aI38637371
aI995200840
aI766873417
aI38637390
aI766873444
aI766873446
aI772444032
aI1436323714
aI295014299
aI305368998
aI295014313
aI344987635
aI4080046004
aI2863632313
aI295014348
aI7311311
aI1436323792
aI7311318
aI7311325
aI4469198816
aI4302671845
aI1429193383
aI216961017
aI216961018
aI1439993858
aI4246114313
aI4302684846
aI5942513693
aI563908675
aI60921873
aI208900211
aI329158773
aI32084088
aI3550318713
aI1436651652
aI1436782728
aI4820275344
aI257331347
aI431788183
aI1436782744
aI4469919897
aI32084123
aI6570694
aI1437765805
aI1608421560
aI63750860
aI17862858
aI32084192
aI32084206
aI32084209
aI3602157820
aI4802121986
aI294949124
aI332566791
aI294949136
aI655986961
aI32084265
aI4246114621
aI294949188
aI63672652
aI4182282574
aI124555606
aI351637852
aI1436389728
aI4820144491
aI351637869
aI63672694
aI4820144505
aI308515203
aI7246234
aI317484444
aI226005420
aI3865219503
aI3889402292
aI906880
aI1335750048
aI3631256022
aI351637981
aI1475243429
aI448762348
aI347836911
aI3349189108
aI4302672378
aI697012737
aI3349189123
aI351638025
aI5784322
aI1273261
aI351638035
aI351638036
aI4477653527
aI1438969263
aI294949404
aI351638046
aI491491871
aI672518
aI5420847658
aI32084542
aI32084544
aI708481601
aI1273270
aI351638104
aI351638107
aI351638108
aI63672926
aI351638111
aI463573609
aI3811742316
aI351638129
aI3996029554
aI4820013686
aI4820013687
aI351638140
aI351638141
aI2421068435
aI1436521108
aI351638183
aI4195717809
aI451252916
aI766874302
aI32084682
aI258708182
aI1807068
aI1807069
aI1807072
aI1807080
aI241210089
aI1439863531
aI1807088
aI3681391347
aI1807095
aI294949628
aI294949629
aI1807103
aI1807104
aI4802122506
aI345871115
aI2097976076
aI284791567
aI4477653797
aI318411570
aI4469396294
aI284791645
aI3384251234
aI1807208
aI1438356330
aI3873543024
aI4478571387
aI4802122622
aI2015859596
aI4820079501
aI4820157251
aI1436390292
aI2054984604
aI351638429
aI4918973379
aI4479488965
aI294949838
aI38769617
aI451253212
aI294949854
aI708482024
aI3894581415
aI2790560748
aI3137836022
aI926258178
aI376345612
aI376345622
aI336041015
aI1464439871
aI4302672964
aI2893976645
aI336041052
aI228693086
aI318411871
aI538734097
aI257332335
aI257332336
aI1338899
aI283284597
aI1404437
aI4486480747
aI228693140
aI3572012192
aI2096665762
aI4302673071
aI854234292
aI3915158710
aI336041146
aI617845954
aI336041158
aI4820210891
aI336041164
aI3822359761
aI4469331154
aI4469331155
aI3890255075
aI336041201
aI277452021
aI627966
aI627967
aI766874880
aI277452033
aI30905607
aI336041226
aI30905615
aI277452053
aI277452054
aI277452056
aI277452057
aI486959
aI929600803
aI777688372
aI854299966
aI32085311
aI4802909509
aI336069335
aI929600860
aI766874974
aI332567934
aI4089288065
aI3231094147
aI32085388
aI1338947
aI478320024
aI332567967
aI332567972
aI6170908071
aI4820211120
aI3605370291
aI1808242117
aI32085456
aI462198227
aI4802844117
aI4134835697
aI317495550
aI1805687041
aI3940718109
aI38738181
aI32085540
aI3996030501
aI4302673458
aI3324440159
aI3938686532
aI5168862796
aI4303328869
aI789157485
aI4875327087
aI636982905
aI3938686592
aI7247489
aI7247492
aI4324365957
aI4820211335
aI226006676
aI449615529
aI6194697916
aI318412477
aI318412479
aI284006086
aI1306232
aI258775332
aI1436784363
aI4477458156
aI681481977
aI2786825979
aI227448576
aI4304770831
aI1436325648
aI4859598621
aI1436325665
aI6657827
aI4820211498
aI4470052651
aI2274924850
aI308516669
aI2898827087
aI1438553940
aI3890452312
aI610583527
aI4820211571
aI1150457725
aI257333163
aI294492088
aI1157535673
aI257333178
aI371365827
aI257333190
aI257333191
aI257333192
aI257333194
aI32085963
aI257333196
aI257333197
aI5015836622
aI257333204
aI294492126
aI294492128
aI2594786
aI2594787
aI257333225
aI257333226
aI956209140
aI4816607231
aI67803142
aI2595723273
aI294492172
aI1438160913
aI778737698
aI257333291
aI257333297
aI257333308
aI257333322
aI351639637
aI224761943
aI351639640
aI351639641
aI351639643
aI5795517
aI351639673
aI6658177
aI6658181
aI257333383
aI257333385
aI32086157
aI32086159
aI410753172
aI4089026711
aI798595224
aI1962383516
aI4820168389
aI410753191
aI3311442104
aI1437046970
aI421578
aI370120901
aI3894646983
aI317495506
aI317495507
aI317495508
aI1345558742
aI1438292186
aI370120924
aI317495521
aI4802124009
aI317495530
aI257333488
aI370120947
aI317495542
aI317495544
aI317495546
aI317495547
aI317495549
aI412195070
aI317495551
aI317495552
aI317495553
aI317495554
aI317495555
aI317495556
aI317495557
aI317495558
aI317495559
aI317495560
aI317495561
aI317495563
aI317495564
aI351607170
aI1221695767
aI317495581
aI351607173
aI317495587
aI317495588
aI351607174
aI1436522790
aI317495593
aI4469987630
aI317495599
aI317495600
aI351639857
aI1436522802
aI4302674230
aI1442486585
aI451320126
aI1207736640
aI451320140
aI1436457296
aI6658390
aI1436785041
aI2707265924
aI351639945
aI63609233
aI376751173
aI4802517408
aI1436785061
aI4337998263
aI1439078877
aI3349912040
aI554342892
aI554342893
aI3539704311
aI3384384006
aI793221650
aI420125227
aI351640122
aI1602460219
aI283810368
aI4251753027
aI2274466397
aI32086625
aI705638
aI329030246
aI7576168
aI7576169
aI294492781
aI294492782
aI294492786
aI3938687603
aI32086648
aI7576201
aI4304181916
aI2150406816
aI4802517677
aI4820212398
aI6898804
aI294940447
aI182164156
aI7314116
aI35625673
aI4302215883
aI1319475918
aI368745170
aI1439144661
aI4358118124
aI855743221
aI7248635
aI317496061
aI4802910981
aI4802517766
aI167418634
aI554343185
aI1436523286
aI284793624
aI4802911019
aI3539639108
aI4820212553
aI294493005
aI3914505044
aI4820409191
aI3829565
aI2507381619
aI84908930
aI705686
aI1436523415
aI789748633
aI185047962
aI705691
aI351640488
aI351640489
aI351640490
aI351640491
aI3081542576
aI564457288
aI3338247095
aI351640504
aI351640510
aI1436720066
aI35625929
aI294493134
aI294493135
aI3365706711
aI294493144
aI3967065051
aI6235724787
aI277453812
aI2274860040
aI2344000522
aI3337853973
aI32087074
aI257334320
aI257334321
aI257334322
aI257334323
aI351640642
aI351640643
aI317496400
aI317496401
aI854760531
aI854826075
aI317496414
aI317496418
aI3593837692
aI317496466
aI329150318
aI4802518166
aI317496479
aI257334448
aI3720912062
aI2097388740
aI2055511243
aI156605644
aI5495692493
aI1651219664
aI2097388758
aI2358222040
aI226270435
aI6571218
aI376216825
aI257334535
aI431791373
aI346922258
aI2607586589
aI351640868
aI646159655
aI351640872
aI376216874
aI376216875
aI5015706926
aI2615319857
aI351640884
aI351640886
aI6571231
aI376216899
aI1391435083
aI351640911
aI351640917
aI1438817626
aI351640926
aI351640928
aI351640930
aI2292227430
aI284794216
aI284794223
aI902377
aI3231423864
aI351640959
aI351640961
aI351640963
aI930901910
aI284007815
aI6659473
aI4802910787
aI2893782421
aI227438490
aI705777
aI31104427
aI336053491
aI501587398
aI4820092151
aI538680798
aI227384856
aI4217347623
aI3550322224
aI4820213301
aI308518466
aI4802125400
aI449748578
aI793419364
aI17014373
aI400793210
aI17014405
aI1093967498
aI2514787991
aI3231096491
aI4477263538
aI1437507251
aI17014453
aI305372859
aI4802125502
aI4478967491
aI3431767752
aI1273804
aI1099042
aI448765648
aI400793302
aI17014488
aI4302675679
aI17014496
aI1436458723
aI4304051942
aI4825194215
aI317311053
aI705834
aI317497086
aI487386
aI4135362335
aI4469989152
aI317497128
aI294887209
aI294887211
aI927964999
aI4302217038
aI317497174
aI501587799
aI3802832729
aI294887259
aI4874280806
aI2107285354
aI1436786540
aI4245987189
aI2023223273
aI6659989
aI228695963
aI1437769629
aI317497246
aI317497247
aI317497248
aI4304773033
aI4820017067
aI4820017068
aI4820017069
aI487411
aI63676345
aI4302217152
aI487414
aI305373135
aI351641566
aI1437769695
aI2568658916
aI317497334
aI317497335
aI317497336
aI317497339
aI317497340
aI317497341
aI317497342
aI317497343
aI317497344
aI317497345
aI317497346
aI317497354
aI82812943
aI317497361
aI294887447
aI431071265
aI369729582
aI3739590710
aI3299582022
aI662203
aI812163177
aI317808277
aI4820213881
aI257335428
aI156803212
aI4817689282
aI4820279445
aI2098371268
aI257335454
aI257335455
aI82789744
aI376217764
aI2357829805
aI257335479
aI1330028736
aI32088311
aI351650772
aI257335554
aI257335555
aI257335556
aI257335557
aI484483335
aI4251492619
aI376217870
aI351641878
aI4802519329
aI257335586
aI257335593
aI257335594
aI257335596
aI351641902
aI351641903
aI351641904
aI376217912
aI351641917
aI257335614
aI257335615
aI257335616
aI257335620
aI124625221
aI336053645
aI332439904
aI257335656
aI257335661
aI845652335
aI257335673
aI257335678
aI1429184899
aI257335687
aI5297578380
aI4469203363
aI1436721575
aI60989871
aI257335748
aI317497797
aI854237645
aI4304773590
aI317497829
aI317497831
aI317497832
aI317497833
aI317497834
aI317497836
aI317497837
aI317497838
aI317497843
aI3233542229
aI788701698
aI4469203463
aI3867320848
aI4479623702
aI854237723
aI38707749
aI351642159
aI294953534
aI38707776
aI38707777
aI38707778
aI959050
aI369730124
aI854237786
aI257335912
aI4802978415
aI587047536
aI854762097
aI564437628
aI257335951
aI959121
aI1437311634
aI376218267
aI376218268
aI376218270
aI318349991
aI6899143
aI597205677
aI484352687
aI5119058619
aI6240379586
aI257336008
aI257336009
aI257336011
aI257336012
aI257336015
aI487547
aI2343740141
aI3306136315
aI258777854
aI3349193481
aI351642403
aI4325417765
aI6595378
aI6595379
aI6595380
aI6595381
aI6595383
aI2357699385
aI351642433
aI351642434
aI4820017998
aI3023676243
aI351662224
aI2790387857
aI1437115258
aI4802126722
aI2107745157
aI4246446997
aI2994250647
aI280273859
aI38708171
aI352494544
aI614114258
aI257388709
aI306881505
aI5015839737
aI9806850
aI4134904838
aI372633772
aI317301773
aI281715735
aI351662258
aI4325418053
aI3914703948
aI924361805
aI351642702
aI351642732
aI294888572
aI38708349
aI400453824
aI294888578
aI631942
aI631943
aI631945
aI631946
aI631947
aI631949
aI631951
aI631952
aI631954
aI631956
aI3890652320
aI329150663
aI3417154734
aI351642801
aI4477658298
aI351642813
aI38708418
aI351642819
aI351642820
aI1713874132
aI351642840
aI351642841
aI351642848
aI351642851
aI351642852
aI1274066
aI3593970926
aI38708463
aI990618865
aI294823155
aI294823156
aI294823162
aI294823163
aI294823164
aI351642878
aI3676415236
aI1274072
aI61056290
aI759604527
aI208971058
aI1981982005
aI4274169156
aI317498694
aI3258557785
aI4802913627
aI294823268
aI318350694
aI431072637
aI318350720
aI318350721
aI318350722
aI318350723
aI318350724
aI318350726
aI318350729
aI318350730
aI318350734
aI3346111386
aI2890638750
aI410756511
aI410756512
aI318350763
aI318350764
aI294823350
aI789292472
aI294823356
aI294823359
aI294823361
aI294823362
aI294823364
aI3811222989
aI4820215258
aI854238686
aI4477658597
aI4820018672
aI105752052
aI4478641660
aI431072772
aI2427692552
aI431072784
aI410756628
aI38708762
aI1274117
aI336045602
aI336045605
aI336045614
aI431072826
aI431072832
aI410756676
aI4802127438
aI564504144
aI4336035416
aI3689260641
aI708486758
aI272868975
aI257336958
aI336045695
aI257336960
aI431072912
aI431072922
aI431072924
aI36152989
aI318351006
aI431072928
aI318351010
aI257336997
aI257336998
aI227387051
aI82814637
aI431072950
aI1441179323
aI38643394
aI38643398
aI309438151
aI38643402
aI38643403
aI38643404
aI3939280589
aI3938690771
aI38643412
aI38643416
aI38643417
aI38643418
aI257337060
aI257337061
aI4820149990
aI3231164142
aI257337080
aI2801706747
aI189441798
aI1442031371
aI351640536
aI4302546707
aI450078486
aI257337111
aI257337112
aI257337113
aI4820346650
aI257337115
aI257337116
aI257337122
aI2197989155
aI257337124
aI257337130
aI431073067
aI6596396
aI6596398
aI336071670
aI38643517
aI38643518
aI38643519
aI38643520
aI38643521
aI257337157
aI431073098
aI257337175
aI4820150108
aI1667999582
aI564504416
aI318351202
aI257337199
aI257337203
aI61712248
aI336045945
aI257337213
aI927770497
aI7776141
aI1177134993
aI294954901
aI4820150166
aI2006362021
aI4515604392
aI4802848681
aI431073200
aI277453811
aI431073204
aI431073205
aI2279516090
aI3405227965
aI61712326
aI431073236
aI38643670
aI1436329948
aI336046047
aI990619625
aI257337346
aI257337347
aI294955040
aI294955042
aI294955043
aI567335
aI567336
aI567341
aI567345
aI4088965171
aI567348
aI317302839
aI317499456
aI317499460
aI567376
aI567377
aI854763606
aI567383
aI317499484
aI38709341
aI1436330078
aI769501279
aI61712488
aI317302890
aI317302891
aI845981808
aI7776376
aI3539576954
aI7776381
aI4357859458
aI317302922
aI317302923
aI317302924
aI317302925
aI317302926
aI317302927
aI317302928
aI317302929
aI317302930
aI317302931
aI317302932
aI4469139605
aI317302934
aI317302935
aI317302940
aI1436657822
aI257337514
aI352692403
aI4303333558
aI2643503289
aI317302972
aI317302973
aI317302974
aI317302975
aI317302976
aI317302977
aI317302981
aI317302983
aI317302984
aI317302987
aI317302989
aI798410445
aI4246120659
aI2421729495
aI7776486
aI317303017
aI7776496
aI7776499
aI6219933940
aI4820019450
aI1339777
aI2056235282
aI2196941080
aI3416697113
aI257337630
aI257337632
aI3305872432
aI257337634
aI855615783
aI567596
aI317303085
aI294955310
aI567599
aI567601
aI567604
aI2274273590
aI567608
aI567610
aI567611
aI38709565
aI38709566
aI317303103
aI567616
aI567617
aI567618
aI567624
aI1436657994
aI1339791
aI7776605
aI7776609
aI7776610
aI294995687
aI2549393774
aI7776630
aI400468345
aI400468347
aI400468352
aI305375617
aI4519143834
aI38644126
aI167553463
aI2568530361
aI708496208
aI567748
aI567752
aI4302612937
aI902903
aI567756
aI567757
aI1515366863
aI567763
aI38644180
aI38644181
aI38644182
aI38644183
aI567769
aI567777
aI567780
aI567782
aI567783
aI7776744
aI567790
aI400796157
aI4303202832
aI1515498012
aI431794719
aI4820136369
aI636594736
aI4303417780
aI7776840
aI7776858
aI7776859
aI567902
aI7776867
aI2343873124
aI567909
aI567910
aI7776876
aI567917
aI567920
aI7776881
aI7776882
aI567924
aI567929
aI567930
aI567933
aI3924798080
aI4820019870
aI4304841381
aI717257
aI4100238010
aI1221110463
aI2435230407
aI294955722
aI930392785
aI4156205778
aI3813386963
aI4304775895
aI257338074
aI257338075
aI3631262430
aI976178794
aI317496444
aI207923948
aI4802128627
aI257338104
aI1436330764
aI3624119053
aI352693009
aI227453726
aI257338147
aI5489339178
aI18000683
aI1436490889
aI3334581052
aI257338185
aI257338189
aI257338191
aI257338196
aI257338197
aI257338198
aI345287511
aI564112225
aI767011689
aI4302089066
aI400468846
aI400468848
aI400468849
aI257338229
aI400468854
aI400468855
aI400468857
aI400468858
aI400468859
aI400468860
aI400468862
aI257338241
aI257338242
aI257338243
aI257338244
aI257338245
aI400468870
aI336046983
aI1494789001
aI400468876
aI1274350
aI554347422
aI788376482
aI4143950757
aI1436330919
aI3306007465
aI257338292
aI257338293
aI216968124
aI257338301
aI257338302
aI257338304
aI4820020161
aI257338306
aI257410891
aI1436330952
aI706380
aI336047066
aI7777243
aI7777244
aI431074276
aI7777253
aI431074279
aI431074280
aI1092585
aI7777261
aI7777263
aI431074291
aI717310
aI431074298
aI2608442364
aI326413320
aI257338380
aI1092621
aI1203874836
aI2055056406
aI4820347938
aI4302220327
aI257338411
aI257338412
aI2072489014
aI115387460
aI1436331086
aI741649491
aI305376341
aI1092694
aI305376343
aI305376345
aI305376346
aI305376347
aI305376348
aI305376351
aI7777377
aI7777379
aI4246437482
aI7777383
aI4217351278
aI7777392
aI699903095
aI305376379
aI1092735
aI4820348032
aI4820216965
aI4302679179
aI257338510
aI305376413
aI1092771
aI564440238
aI854764722
aI84847796
aI305376437
aI4820020410
aI1092806
aI216968395
aI4820020431
aI3143806165
aI257338583
aI257338584
aI1629793515
aI1092846
aI929541364
aI4469861644
aI224767248
aI336071720
aI1203875096
aI1295363356
aI696823070
aI3605310751
aI1436331297
aI84913442
aI227323172
aI1092924
aI257338689
aI257338690
aI1436331334
aI257338697
aI6120385868
aI227323213
aI227323214
aI3349130578
aI105885020
aI4820020573
aI1092958
aI554347872
aI854764897
aI1092965
aI4303269227
aI3811356012
aI3306138990
aI281718134
aI323143573
aI336047495
aI1093007
aI336047515
aI336047519
aI336047520
aI227323297
aI336047522
aI336047523
aI336047524
aI336047720
aI1093041
aI3463622074
aI5603110334
aI124562891
aI336047564
aI336047565
aI336047573
aI1438166498
aI1436501926
aI1093102
aI501460463
aI1227206133
aI1093110
aI4134055415
aI2110696959
aI7777794
aI7777795
aI7777797
aI336047624
aI336047633
aI336047634
aI336047640
aI7777820
aI7777822
aI336047647
aI1093153
aI2055253538
aI1093155
aI7777830
aI7777833
aI7777839
aI7777840
aI4303269425
aI854240832
aI344960578
aI305376835
aI305376837
aI305376838
aI305376839
aI305376840
aI305376841
aI305376843
aI305376845
aI305376846
aI568912
aI1093201
aI1093202
aI336047699
aI1093204
aI336047701
aI336047702
aI1093207
aI1093209
aI1093210
aI336047708
aI336047710
aI765536
aI765537
aI2097465275
aI765544
aI765548
aI336047725
aI765552
aI765553
aI765555
aI765557
aI765560
aI1093247
aI1093248
aI1093250
aI1093251
aI340897416
aI7712396
aI4828868239
aI7777936
aI7712404
aI340897429
aI765591
aI765598
aI765601
aI7712420
aI765606
aI1093290
aI1093291
aI1093292
aI765613
aI1093294
aI765615
aI4374507184
aI337882802
aI4302679734
aI765627
aI317304510
aI317304516
aI4802850503
aI4802129608
aI4820020938
aI765651
aI1093335
aI1093336
aI1093337
aI1093339
aI1093340
aI4802850526
aI1093344
aI1093345
aI336047842
aI765668
aI765670
aI765679
aI765680
aI765681
aI376221426
aI765684
aI979582
aI765686
aI979583
aI765692
aI2912464652
aI765719
aI765723
aI610053916
aI1093419
aI1093420
aI1093421
aI1093423
aI7778096
aI7778097
aI7778099
aI2095296309
aI7778106
aI3338579772
aI7778109
aI7778111
aI7778112
aI2990845763
aI634701
aI634703
aI1093457
aI1093459
aI333950804
aI1093461
aI1093463
aI227389272
aI227389273
aI634715
aI1093469
aI1093470
aI431075168
aI765796
aI1093479
aI927641451
aI2207100783
aI1093505
aI765828
aI7253893
aI1391046536
aI288796554
aI1093515
aI288796556
aI1093517
aI765838
aI447590290
aI38673731
aI765846
aI219393952
aI3231166369
aI765858
aI765865
aI765867
aI1093557
aI765878
aI1093559
aI1093561
aI1093562
aI1093563
aI3601051587
aI336048068
aI336048069
aI765896
aI765897
aI765906
aI1390915544
aI765913
aI1093602
aI1093604
aI1093605
aI765926
aI1093607
aI765928
aI450080747
aI4302090224
aI431075314
aI431075315
aI431075318
aI227389435
aI336048124
aI336048126
aI345878530
aI4820021252
aI1093641
aI704557066
aI765966
aI1437201069
aI1093649
aI1093651
aI1093653
aI1093654
aI765976
aI765978
aI4820152351
aI765989
aI318418982
aI345288745
aI766000
aI1093685
aI1093686
aI1093692
aI1093693
aI1093696
aI1093700
aI1093701
aI4304842826
aI766032
aI16914019
aI3890524254
aI766053
aI4820217961
aI1093742
aI1093743
aI1093744
aI351640936
aI854831238
aI1093776
aI336021528
aI368685202
aI317304982
aI1093783
aI4820218016
aI257405090
aI38121638
aI257405113
aI1093819
aI1093820
aI1093828
aI1093829
aI4820218075
aI216969439
aI1436791015
aI2198122741
aI197871657
aI309375234
aI4820152582
aI216969487
aI38684718
aI1093911
aI1093921
aI410759462
aI4820152618
aI4802130219
aI1093963
aI1093964
aI1093967
aI4820414802
aI1093972
aI646426969
aI2643620581
aI4874547573
aI1094006
aI333295995
aI352694658
aI621588868
aI5068599703
aI3294802334
aI1094048
aI1094049
aI4303139237
aI280277421
aI280277422
aI336048559
aI352104882
aI3351949748
aI4304908733
aI1094088
aI1094089
aI1094090
aI1094091
aI1094092
aI1094094
aI1094095
aI1094096
aI1094097
aI1094099
aI1094135
aI1094137
aI1094138
aI1094139
aI7254543
aI1094177
aI3337876230
aI257339942
aI1094186
aI1094187
aI1094188
aI1094189
aI2024649262
aI3359093306
aI2137109057
aI323143777
aI1094227
aI1094228
aI1094229
aI257339990
aI1094231
aI1094232
aI1094234
aI1094236
aI1094240
aI32092773
aI16914037
aI474133107
aI216969846
aI410759799
aI410759800
aI1094275
aI1094276
aI1094278
aI1094282
aI1094283
aI4790727308
aI294963309
aI257340049
aI4469994137
aI628339360
aI2636362410
aI4022907564
aI759548018
aI1094318
aI3717116593
aI1094322
aI3890328244
aI1094325
aI1094326
aI1094327
aI1419555512
aI766649
aI16914020
aI766659
aI3241784005
aI766663
aI766664
aI766665
aI501461715
aI766677
aI1094362
aI257340125
aI1094366
aI1094367
aI1094369
aI1094370
aI1094371
aI628339428
aI1094373
aI1437119225
aI284799741
aI766723
aI3938693893
aI1094411
aI1094412
aI1094414
aI1094415
aI1273410323
aI1094423
aI1094424
aI1094425
aI4820218652
aI1429189415
aI227390250
aI3250893612
aI17216304
aI4245992245
aI3349132089
aI1094458
aI1094459
aI1094463
aI1094464
aI1094465
aI1094466
aI1094467
aI1094470
aI3299586888
aI766802
aI4820022100
aI854831961
aI766810
aI766816
aI2055713633
aI4821070690
aI257340264
aI1094505
aI1094506
aI257340267
aI1094510
aI257340272
aI257340273
aI257340274
aI257340275
aI257340277
aI766863
aI1094546
aI3081679763
aI430420884
aI1094553
aI1094554
aI766876
aI4820022174
aI1094559
aI2628984304
aI4302680998
aI257498609
aI376288168
aI463451053
aI1436529583
aI1094576
aI3312169912
aI305378235
aI1094593
aI1094594
aI1094595
aI1094599
aI1094603
aI257405900
aI1094605
aI539194189
aI257405904
aI257405906
aI6193001430
aI16915961
aI2786964444
aI438809565
aI5796689
aI329036777
aI1436529642
aI352498669
aI1094638
aI1094639
aI1094640
aI1094641
aI4000363514
aI4475827197
aI4427854848
aI352498692
aI329167880
aI38646793
aI2055189514
aI2274669582
aI1429189647
aI257340435
aI258716692
aI257340437
aI257340438
aI257340439
aI1094682
aI1094683
aI38646813
aI38646814
aI1094687
aI1094688
aI257405986
aI38673926
aI1436464174
aI38646839
aI38646841
aI38646842
aI38646843
aI38646844
aI1094725
aI1094729
aI4820022347
aI317371468
aI317371469
aI1094734
aI1436333142
aI1094751
aI640687632
aI3407328369
aI1094772
aI4302222457
aI70169724
aI70169725
aI794866818
aI2006627462
aI305378448
aI4246451354
aI352498845
aI564442270
aI7779487
aI257406112
aI564442273
aI4819956898
aI1094825
aI38712490
aI1436464299
aI1094830
aI2596189359
aI794932402
aI1340276
aI4820350140
aI38712510
aI38712511
aI3250238658
aI227456200
aI227456201
aI227456202
aI294827215
aI4802131154
aI1094868
aI1094869
aI257406178
aI257406179
aI4802524391
aI1340285
aI1094899
aI1094900
aI38647036
aI38647037
aI38647038
aI1094911
aI1094913
aI1094914
aI3915101447
aI1094920
aI1094921
aI1094922
aI3269833998
aI63616272
aI564442388
aI1602467098
aI1436529948
aI352498973
aI1436529951
aI1094955
aI1440527664
aI1094971
aI207833313
aI1436464456
aI227456339
aI227456340
aI3539449173
aI1095006
aI376293606
aI4820022630
aI288929127
aI1429845358
aI3602101622
aI5432456572
aI3938694525
aI1095039
aI1095047
aI1095048
aI1095050
aI1095052
aI1095053
aI38712723
aI2340247
aI243096
aI1429190047
aI9352615
aI1436530091
aI1436333485
aI1095086
aI97957296
aI376293619
aI7124409
aI97957309
aI1095127
aI1095128
aI1095130
aI1095137
aI789362157
aI2343482865
aI759608819
aI231519743
aI1095170
aI1095174
aI1095176
aI1095177
aI1095179
aI4820155939
aI655968517
aI1436333600
aI3631265322
aI2097788460
aI1095214
aI38649380
aI5576111664
aI1095222
aI1095224
aI284800573
aI1436333635
aI1095248
aI4469208657
aI1095258
aI4725782108
aI1095263
aI1095264
aI284800611
aI1095269
aI284800619
aI3890394734
aI207926898
aI7779958
aI2197862016
aI38712966
aI257406599
aI1095307
aI1436480450
aI1095319
aI329168536
aI257406622
aI1436480453
aI1126217381
aI3863393958
aI3144201897
aI1436464813
aI1095353
aI257406651
aI3631068861
aI217102020
aI1436333767
aI257406676
aI1436792533
aI97957590
aI5225625303
aI1095393
aI257406696
aI336049897
aI257406698
aI257406699
aI38713073
aI2260121343
aI257406723
aI257406724
aI2886711045
aI1095431
aI1095432
aI1436464905
aI1095437
aI216971023
aI1340379
aI257406757
aI257406758
aI257406759
aI257406760
aI257406761
aI38713133
aI1095472
aI1095473
aI1095474
aI257406771
aI257406772
aI1095481
aI2291054400
aI257406793
aI1095516
aI1095517
aI1095518
aI3324426079
aI257341282
aI927840106
aI2274473837
aI3002972015
aI4302223219
aI4302223220
aI4304844663
aI3463755669
aI13235184
aI1095593
aI1095595
aI351613867
aI3938826162
aI63616951
aI4820023224
aI4478515134
aI2094774208
aI4842960836
aI272283591
aI207599563
aI1095628
aI207599565
aI207599566
aI97957843
aI272283613
aI63616992
aI1095655
aI3545675761
aI38713354
aI1436334094
aI1390983185
aI336032771
aI207599637
aI207599638
aI4820285492
aI1436530746
aI4302157883
aI73906237
aI318359907
aI305379417
aI1095787
aI1437841523
aI4088903798
aI2260646023
aI1095823
aI616478886
aI38713519
aI351647935
aI4820285633
aI3126180040
aI38713548
aI4352489679
aI305379536
aI4820027768
aI257407193
aI257407194
aI305379564
aI257407216
aI214874368
aI1651292437
aI4820220191
aI337885474
aI351648039
aI4217813295
aI1436793141
aI351648058
aI5015910716
aI4476549437
aI2713172303
aI7780688
aI927971671
aI215005574
aI337885583
aI38713757
aI257407396
aI38713773
aI38713774
aI7780786
aI257407416
aI257407435
aI351648206
aI3231168979
aI2055780824
aI4478515674
aI294894047
aI294894048
aI294894049
aI337885666
aI294894051
aI257407461
aI351648235
aI4477656829
aI2538004
aI257407513
aI4820417050
aI1436793372
aI2187573791
aI97958435
aI3867916837
aI176536107
aI294763053
aI4802132527
aI4477598268
aI182172227
aI4820220492
aI383302223
aI4819958352
aI1274979
aI38124130
aI1825028722
aI3811424885
aI1426111101
aI3359095433
aI38714006
aI38714007
aI2433464990
aI4802853535
aI2538144
aI2538148
aI854309544
aI2538155
aI4469209777
aI2538163
aI995867316
aI3940072123
aI3688479450
aI17021662
aI288799466
aI288799467
aI288799468
aI1444657907
aI961264372
aI4820417270
aI1271669
aI995212029
aI257407745
aI257407746
aI1438497540
aI97958663
aI3571956488
aI97958666
aI97958667
aI257407761
aI4477664024
aI4820024112
aI2893790008
aI155499329
aI788183874
aI4820155203
aI63683397
aI5339790150
aI2538311
aI2538312
aI343784266
aI431038263
aI56998735
aI3349946169
aI7781209
aI317504346
aI317504350
aI965473
aI317504355
aI294763364
aI1340562
aI7781237
aI7781238
aI317504380
aI217496447
aI4820155266
aI5017353096
aI5149670283
aI317504396
aI294763405
aI317504398
aI1275034
aI704494502
aI2011020204
aI284751007
aI6213450684
aI4820155326
aI3352280010
aI82754513
aI82754514
aI4259822547
aI82754516
aI4820180814
aI4820180815
aI4802132957
aI7781347
aI7781371
aI3938696188
aI3375741953
aI2601040900
aI7781386
aI1438497804
aI4820155405
aI4302675801
aI38714395
aI4141857826
aI2708061219
aI4820155450
aI3625565251
aI284783798
aI3600923737
aI63618140
aI7781490
aI7781494
aI590658679
aI7781498
aI1429191803
aI7781500
aI699841692
aI63683748
aI4134845605
aI318360092
aI564444332
aI258718893
aI990624945
aI4427332803
aI372620488
aI4322802892
aI7716048
aI4302224596
aI372620501
aI294894819
aI924499174
aI97959149
aI638197
aI638204
aI638207
aI4868193536
aI638217
aI4550606091
aI638221
aI638224
aI1436466451
aI638230
aI638232
aI225819935
aI216841516
aI372620589
aI276675886
aI4820155700
aI317504832
aI82754886
aI317504846
aI268221779
aI61717844
aI1825029463
aI317504857
aI38649180
aI1275109
aI4477402464
aI437176891
aI942456165
aI280018283
aI4018847084
aI280018287
aI258719092
aI336051573
aI317504886
aI2161753467
aI3129523582
aI3362438527
aI3744316801
aI4260478338
aI638341
aI4820155784
aI4820235500
aI638347
aI227458445
aI638356
aI1777057173
aI4802526614
aI280018327
aI638368
aI638375
aI4820155831
aI231521724
aI2422434768
aI1436466633
aI4820221388
aI4820221395
aI9747932
aI564444639
aI257408480
aI257408481
aI336051682
aI257408486
aI2097135079
aI370130410
aI63684076
aI257408494
aI2107760985
aI1436335604
aI4820155901
aI97959424
aI257408513
aI257408514
aI17560833
aI97959436
aI280018449
aI520535573
aI336051735
aI257408542
aI372634885
aI280018465
aI336051747
aI336051748
aI336051749
aI280018470
aI336051751
aI3232022056
aI280018482
aI280018483
aI38649396
aI257408566
aI38649400
aI257408570
aI336051771
aI4820221501
aI854244927
aI673740043
aI5242994244
aI268222026
aI257408598
aI280018524
aI280018528
aI3944922723
aI5918146152
aI336051818
aI4844666475
aI63618668
aI257408624
aI336051825
aI336051826
aI37404275
aI4302785129
aI400801404
aI4304060037
aI38649478
aI336051848
aI336051855
aI38715025
aI294895252
aI294895253
aI1275161
aI257408669
aI336051881
aI336051884
aI3101540026
aI280018622
aI82755263
aI82755264
aI82755265
aI3258302146
aI82755267
aI82755268
aI294895301
aI786742987
aI4820268323
aI431079127
aI280018658
aI280018672
aI4379229938
aI257408764
aI4820137260
aI257408789
aI257408790
aI636600111
aI9748274
aI3631267648
aI549371720
aI3349181752
aI286113621
aI337887064
aI549437277
aI3232087917
aI4302159726
aI4820221821
aI2851664
aI336052099
aI3405299591
aI1452720008
aI4239638414
aI38649756
aI38649757
aI38649758
aI2840510370
aI973193147
aI207929287
aI207929288
aI227459022
aI3915235287
aI4194484185
aI3337863134
aI227459048
aI308264967
aI370130961
aI788187822
aI1436532760
aI2994651170
aI4477534259
aI1221050427
aI430161983
aI4820025418
aI4304126054
aI601079922
aI587055228
aI4820156549
aI4820156550
aI3652042894
aI97960087
aI97960088
aI1199483113
aI63619231
aI63619232
aI63619234
aI4820025514
aI465223854
aI227459271
aI1436795087
aI2057683155
aI2433597659
aI1436467422
aI4820025580
aI854245616
aI257409273
aI1429192957
aI351650051
aI4304847115
aI351650062
aI351650064
aI351650065
aI318357778
aI351650087
aI259965236
aI257409338
aI4873175358
aI351650111
aI207929667
aI257409352
aI351650130
aI4820156756
aI2607333718
aI2602221926
aI1469248915
aI257499198
aI351650166
aI257499199
aI4302684542
aI257409410
aI351650179
aI351650186
aI351650197
aI4304095987
aI4246716856
aI2107031993
aI1479459266
aI284737996
aI1761001936
aI3338125788
aI3314598368
aI4071014884
aI7258608
aI4302815738
aI3660038653
aI336052737
aI336052738
aI3233268232
aI462275104
aI284738086
aI1288946224
aI257499230
aI284738102
aI284738103
aI708493880
aI284738105
aI336052796
aI4478386750
aI336052804
aI934789707
aI1274790482
aI3938828886
aI284738137
aI284738145
aI4820137403
aI284738149
aI284738150
aI284738152
aI284738154
aI284738156
aI1608630895
aI6000919152
aI82756229
aI82756230
aI82756231
aI82756233
aI82756234
aI5497143954
aI4820157076
aI4302750359
aI770712
aI770714
aI4820157095
aI2540203
aI4110729902
aI4820288180
aI1429193400
aI1439744701
aI4302192237
aI4820222658
aI323404492
aI4820093730
aI257409745
aI63619846
aI1436467979
aI1441383181
aI4302816019
aI4478583587
aI257409835
aI257409836
aI4302750509
aI1406452530
aI3571696441
aI788644666
aI257409859
aI257409863
aI257409864
aI2197275471
aI4304847727
aI1397998448
aI4820157300
aI4302160766
aI4302160767
aI857129860
aI257409935
aI257409939
aI257409943
aI257409944
aI257409950
aI32097191
aI257409962
aI6201459631
aI2567947184
aI2433205173
aI2990326711
aI257409979
aI32097220
aI227460039
aI1436533716
aI351650774
aI4820157409
aI4820091879
aI1436664811
aI5656234835
aI38650876
aI2100085762
aI257410052
aI257803274
aI967695
aI3895772176
aI257410066
aI4820091923
aI4820091924
aI257410070
aI38650911
aI257410096
aI449889336
aI929612868
aI386450501
aI705618
aI705620
aI705621
aI705622
aI705625
aI705629
aI705633
aI705636
aI4820028262
aI38650982
aI705641
aI4820026480
aI1436533873
aI4245931122
aI705651
aI705652
aI705658
aI4820092048
aI705685
aI370132118
aI705687
aI705690
aI400475291
aI705692
aI705696
aI705700
aI705702
aI705706
aI351652722
aI705711
aI705715
aI1234158776
aI705721
aI705723
aI705724
aI705726
aI336055157
aI974375799
aI705747
aI705748
aI705751
aI705753
aI449889500
aI902367
aI705760
aI1899021538
aI705764
aI336053478
aI705767
aI2831140072
aI705769
aI705771
aI705772
aI705773
aI705775
aI798213361
aI4304717042
aI705779
aI336053492
aI902391
aI705785
aI705786
aI336053503
aI902401
aI4820092162
aI2961229066
aI336053519
aI705814
aI705817
aI705821
aI705822
aI705823
aI705824
aI705825
aI705826
aI705828
aI705830
aI705831
aI2275067178
aI942458166
aI268223822
aI2787145272
aI1471160547
aI565036372
aI3269576045
aI612746615
aI402179449
aI4820092284
aI383305089
aI351598145
aI351598146
aI4820354448
aI563908617
aI257411996
aI3938704101
aI345294278
aI216843722
aI368690647
aI336053720
aI336053721
aI336053722
aI2787427803
aI902626
aI902627
aI902637
aI4478584312
aI902651
aI902658
aI564480939
aI1436796428
aI288802320
aI30787091
aI30787093
aI30787094
aI30787095
aI30787099
aI4820092463
aI227460662
aI284739134
aI284739135
aI284739136
aI284739138
aI284739139
aI284739140
aI284739141
aI226149974
aI336053871
aI2054997619
aI3338488769
aI3648243342
aI1436731027
aI2097464993
aI4088907451
aI902845
aI368690889
aI4302685900
aI2634467021
aI478267087
aI4820092639
aI30788560
aI902882
aI902886
aI902887
aI63686378
aI902892
aI63686381
aI2578937469
aI902896
aI400148209
aI902898
aI336055251
aI902902
aI4820223735
aI4820092682
aI30788567
aI216844047
aI216844048
aI30788568
aI902930
aI902931
aI902932
aI850567470
aI902935
aI294962970
aI351651618
aI4302097371
aI336054064
aI4820223806
aI706377
aI706379
aI257410892
aI706382
aI257345359
aI4082747218
aI226150232
aI1436731225
aI854771550
aI2922429930
aI257410916
aI30788582
aI257410921
aI1436787006
aI32098170
aI4820223869
aI257410942
aI4304175952
aI1807152790
aI257345416
aI1390856073
aI323143562
aI1224984462
aI323143568
aI323143569
aI323143570
aI323143571
aI97961876
aI257410965
aI323143574
aI903066
aI257410973
aI200656798
aI63686559
aI39307171
aI478267318
aI478267323
aI478267324
aI478267329
aI4820092870
aI4820092871
aI323143631
aI903138
aI431081448
aI2098120681
aI351651823
aI4820223984
aI351651827
aI431081464
aI478267407
aI478267408
aI351651873
aI323143717
aI351651882
aI351651892
aI903225
aI1438500925
aI903232
aI854237536
aI903235
aI903236
aI903237
aI903243
aI317311052
aI903245
aI317311059
aI317311060
aI323143770
aI30788623
aI1390987356
aI924305501
aI323143776
aI294963297
aI351651939
aI4469147750
aI323143785
aI323143786
aI323143787
aI323143788
aI323143789
aI294963310
aI294963312
aI478267505
aI3349203058
aI4820093043
aI478267510
aI2055325818
aI3810707584
aI376293505
aI478267525
aI478267530
aI4820027533
aI478267543
aI938221935
aI478267555
aI2197473448
aI4364486832
aI323143865
aI903358
aI4469213375
aI323143878
aI478267594
aI4988455129
aI4302686426
aI349031461
aI2197866720
aI903394
aI284739811
aI903398
aI903399
aI478267624
aI4820289779
aI376293620
aI376293621
aI376293622
aI294855040
aI2197473538
aI164153609
aI903434
aI478267660
aI10471702
aI2097465628
aI3405236527
aI903472
aI903473
aI903474
aI903476
aI903477
aI903478
aI903479
aI903480
aI903481
aI903483
aI903486
aI903487
aI3207579968
aI903490
aI3357722950
aI903497
aI4245801302
aI431081817
aI30787931
aI4820027743
aI4304783715
aI318359908
aI318359909
aI318359910
aI318359911
aI318359913
aI318359914
aI318359915
aI318359916
aI2831075698
aI30787958
aI30787959
aI30787960
aI30787962
aI636668289
aI351652240
aI351652245
aI351652246
aI336054684
aI478267805
aI478267806
aI4516530593
aI352504239
aI30788023
aI30788024
aI30788025
aI30788026
aI257411525
aI4304980423
aI787532235
aI484559319
aI227396067
aI903652
aI903653
aI431081961
aI1759627756
aI4304128496
aI708758004
aI903692
aI4820093460
aI4802136602
aI3935488540
aI318360093
aI318360094
aI2274741339
aI291031588
aI1034791
aI1034794
aI4820027949
aI903739
aI99076668
aI903743
aI903754
aI903755
aI903757
aI903759
aI995150423
aI4820093536
aI1429195363
aI3975072360
aI4239116911
aI793168500
aI257346170
aI3602565758
aI257346177
aI4802136717
aI2188036764
aI3231304352
aI3584281262
aI7588530
aI3605580468
aI368691893
aI4820028096
aI4302228162
aI2279459527
aI4304784078
aI7195344
aI7195345
aI7195346
aI7195347
aI3002780374
aI7195364
aI258722534
aI1216006893
aI1429195518
aI565037823
aI4820093712
aI336055060
aI317508379
aI317508380
aI317508381
aI317508382
aI317508383
aI317508384
aI317508385
aI317508386
aI348769060
aI904000
aI257346371
aI904005
aI257346374
aI904011
aI317508432
aI4696525966
aI478268249
aI216976230
aI257346415
aI3821194097
aI904050
aI351652724
aI351652725
aI317508471
aI294964090
aI4820093820
aI336055168
aI336055169
aI336055170
aI257346435
aI317508489
aI4817603466
aI317508493
aI38652823
aI317508506
aI317508507
aI317508508
aI904346
aI336055200
aI336055202
aI351652775
aI351652777
aI351652783
aI30788529
aI351652789
aI30788536
aI30788537
aI4820093885
aI336055234
aI4820028357
aI336055241
aI30788554
aI4631874509
aI317508560
aI30788561
aI317508562
aI317508563
aI30788565
aI30788566
aI4302097367
aI4302097368
aI30788570
aI30788571
aI4820159452
aI294964189
aI200461284
aI904165
aI904166
aI30788583
aI30788584
aI30788586
aI336055276
aI336055277
aI4820159474
aI336055283
aI336055284
aI1987496950
aI305449975
aI257346556
aI336055302
aI30788622
aI257412111
aI904209
aI904210
aI424201240
aI3696086053
aI336055347
aI257412150
aI904252
aI904256
aI156617794
aI770559054
aI770559055
aI4820028497
aI82758744
aI82758745
aI1436666971
aI257346652
aI257346654
aI257346655
aI82758761
aI82758762
aI82758763
aI30788716
aI30788717
aI30788719
aI904304
aI904306
aI3813002360
aI4820028537
aI30788734
aI257346687
aI30788736
aI4303342727
aI4820028570
aI4304784540
aI30788774
aI30788775
aI4820028588
aI1436667056
aI904383
aI4820094144
aI4820028611
aI4873178313
aI208018580
aI2357841111
aI1437846758
aI30788847
aI30788848
aI30788849
aI284806389
aI228707577
aI2754792714
aI2191052043
aI904461
aI4301901071
aI904467
aI904468
aI336055579
aI336055580
aI336055581
aI336055582
aI336055583
aI336055586
aI336055587
aI4377898
aI904510
aI82758977
aI3298741570
aI1438174533
aI3231173959
aI3251096906
aI207998285
aI4820356438
aI929484121
aI904556
aI38653294
aI904559
aI904564
aI38707774
aI904566
aI257412482
aI2346962309
aI929549704
aI904601
aI284741020
aI4302163358
aI38653355
aI353619378
aI473877945
aI854707645
aI904638
aI376229315
aI376229316
aI257347018
aI336055762
aI1439550931
aI336055764
aI4820094424
aI257347033
aI2274479578
aI257347040
aI257347049
aI9948654
aI336055792
aI336055798
aI636079607
aI4303867387
aI257347073
aI336055814
aI904721
aI904722
aI257347091
aI1808649761
aI655674915
aI5015784997
aI4476423720
aI257347123
aI4515745332
aI904758
aI9948727
aI904766
aI904769
aI904770
aI336055875
aI904773
aI336055883
aI257347150
aI4820793366
aI990695003
aI473878118
aI904811
aI4820029036
aI904813
aI1439223410
aI4820356727
aI38653599
aI38653600
aI30789283
aI451268260
aI372625067
aI332582575
aI4469214896
aI4820094644
aI30789301
aI30789302
aI30789303
aI38719171
aI4820094660
aI3352022725
aI351653576
aI283823817
aI351653578
aI351653579
aI30789324
aI351653584
aI346934996
aI4304719576
aI4486057692
aI4874096349
aI351653602
aI789827300
aI904934
aI904935
aI564459476
aI3457601278
aI3349925635
aI904978
aI904979
aI904981
aI30789398
aI30789400
aI30789401
aI5068934938
aI30789406
aI30789408
aI30789421
aI30789423
aI539348784
aI4820094770
aI4346466101
aI4820422455
aI1822520
aI905021
aI905022
aI905024
aI905025
aI3324432198
aI905033
aI30789450
aI905035
aI30789452
aI30789453
aI30789456
aI30789457
aI30789458
aI30789459
aI30789460
aI30789464
aI30789465
aI30789466
aI4303397519
aI30789468
aI6009507678
aI905062
aI905063
aI905071
aI3593850737
aI30789495
aI30789496
aI30789497
aI30789498
aI30789500
aI2432618372
aI4304785289
aI904514
aI905119
aI1691553
aI3739340729
aI207802307
aI6606788
aI4164472776
aI336048011
aI294965202
aI257413075
aI2056507350
aI3894661079
aI3384332248
aI208981978
aI3488796635
aI3820867554
aI4820094952
aI4820094953
aI336048012
aI257413113
aI257413114
aI32055979
aI372629240
aI280018484
aI257413136
aI905240
aI257413174
aI1822776
aI2378747961
aI257413178
aI905277
aI905284
aI3866774881
aI905289
aI3311456331
aI2497564769
aI2197147753
aI905328
aI905331
aI4475834501
aI38719629
aI257347735
aI1429196968
aI501490376
aI86102199
aI381113
aI311349436
aI431870145
aI381126
aI381128
aI381129
aI4302622923
aI381133
aI227397838
aI381139
aI3938701524
aI3890204889
aI955961564
aI84857078
aI4820095225
aI4246455252
aI257347837
aI2110640401
aI30789910
aI30789911
aI30789915
aI3868315939
aI352506155
aI257347885
aI381233
aI381234
aI257347891
aI381236
aI2107101500
aI491508036
aI3231043909
aI294986465
aI3572027721
aI905550
aI30789969
aI905559
aI905560
aI3364737383
aI905595
aI4156739964
aI905600
aI905601
aI4820095363
aI905604
aI905605
aI905607
aI257347976
aI3664892300
aI905614
aI905626
aI2497958300
aI4820029853
aI4820072517
aI905636
aI381352
aI3803566506
aI4820029872
aI227398065
aI905650
aI381364
aI381365
aI381368
aI381369
aI381370
aI381371
aI381374
aI381378
aI564515268
aI381381
aI855788961
aI381384
aI381386
aI326095309
aI4302623190
aI30790105
aI257348058
aI30790107
aI30790108
aI30790109
aI30790110
aI30790111
aI30790112
aI30790113
aI257348066
aI30790115
aI30790116
aI4868526569
aI30790124
aI3539653102
aI4820029939
aI4820226557
aI3571700224
aI177525249
aI905733
aI4820095497
aI214880781
aI4820029968
aI4820095517
aI1233438
aI4820095525
aI4820029995
aI905774
aI905775
aI207999539
aI97964605
aI1436323957
aI345887299
aI4478521935
aI905808
aI294965842
aI4821144149
aI905814
aI5426762331
aI600822371
aI4820095595
aI317510257
aI4873966196
aI905845
aI317510271
aI905856
aI331141765
aI317510280
aI4246131337
aI331141782
aI2357644740
aI4820226730
aI905903
aI5461168827
aI317510333
aI3681931981
aI3992113875
aI30790375
aI336055763
aI30790395
aI30790397
aI30790398
aI30790399
aI30790401
aI905988
aI1330041606
aI4509651719
aI437179145
aI336057103
aI4820095760
aI257347032
aI30790419
aI564450069
aI4820094425
aI6607644
aI2084360994
aI789173028
aI1226167079
aI906028
aI906029
aI351642421
aI4820095816
aI906062
aI97964886
aI4820095848
aI4820103815
aI1439159152
aI3306410865
aI3683373941
aI431039295
aI2107888508
aI906109
aI906113
aI6607751
aI6607753
aI1823626
aI6607757
aI6607758
aI4820095887
aI6607760
aI6607761
aI6607762
aI6607769
aI6607770
aI6607771
aI6607773
aI257347056
aI4820095917
aI4873114565
aI383308745
aI207999948
aI3349074896
aI4802073554
aI294493143
aI2671563737
aI4820358128
aI6264344062
aI906240
aI38720514
aI4820882444
aI257348627
aI257348628
aI84857886
aI564450345
aI2106709035
aI906287
aI906288
aI4820227126
aI3890992194
aI2274709005
aI3852981330
aI906328
aI3416839261
aI204395617
aI766891110
aI6607976
aI4820358249
aI4303279210
aI4820030571
aI6607982
aI294900848
aI6607987
aI6607988
aI6607989
aI6607990
aI6607991
aI97965176
aI6607995
aI906366
aI906372
aI906376
aI730190986
aI6608011
aI4820223849
aI906385
aI906387
aI1917899929
aI257348764
aI257348765
aI257348767
aI372626592
aI766891169
aI2648985115
aI257348773
aI257348774
aI257348781
aI257348782
aI257348783
aI2286671026
aI257348787
aI906423
aI370136256
aI370136275
aI854316246
aI4802467031
aI906463
aI1429198062
aI2113656055
aI1299705
aI4820096260
aI2891240713
aI2860111115
aI708498702
aI906517
aI257348892
aI344839454
aI257348897
aI257348908
aI3890664754
aI352113978
aI257348926
aI3957380417
aI4820358467
aI4820358468
aI351655250
aI4194489699
aI257338300
aI4820096364
aI4111979903
aI228709765
aI3724679
aI208000392
aI906639
aI906647
aI906648
aI906649
aI3615806883
aI63690154
aI3081033135
aI3232617906
aI4820096449
aI906693
aI906698
aI63690187
aI63690188
aI4450342349
aI67229137
aI38655444
aI550557141
aI4820096477
aI305386981
aI4802139634
aI2106709501
aI257349123
aI257349128
aI257349129
aI410834443
aI30594572
aI765616
aI4820096543
aI288806448
aI288806449
aI1436472882
aI288806451
aI288806452
aI288806454
aI4820096567
aI288806456
aI288806457
aI288806458
aI288806459
aI906816
aI97965637
aI318363218
aI3242448474
aI5399238235
aI431085148
aI257349213
aI288806494
aI288806496
aI257349220
aI4820031077
aI906856
aI5015656043
aI568579695
aI536532595
aI4820227700
aI4820096633
aI3938702973
aI351655552
aI6608513
aI6608514
aI6608516
aI4820096646
aI208000647
aI4820096649
aI906890
aI6608523
aI351655565
aI568579734
aI1439356567
aI906929
aI6639220
aI97965778
aI1438242528
aI906987
aI6608620
aI4155954928
aI6608625
aI6608633
aI6608635
aI6608636
aI6608637
aI6608638
aI4820096768
aI6608641
aI3463632642
aI6608653
aI6608655
aI6608659
aI6608660
aI376362775
aI376362776
aI6608666
aI3135493919
aI38655780
aI6608677
aI1438338695
aI4820096817
aI789567289
aI17004853
aI38655812
aI38655813
aI907081
aI907085
aI3938703194
aI3631404893
aI294901601
aI294901605
aI294901608
aI3858945898
aI4820096878
aI907123
aI4802140024
aI4246656889
aI6608763
aI6608770
aI6608771
aI6608772
aI61724549
aI6608775
aI6608776
aI61724556
aI6608781
aI6608782
aI6608784
aI6608785
aI6608797
aI6608798
aI6608802
aI6608804
aI294901671
aI907176
aI294901680
aI6608817
aI2699155378
aI6608819
aI227399618
aI317487435
aI907206
aI907208
aI907213
aI97966035
aI4820359129
aI704567268
aI4820359145
aI3582580727
aI734320642
aI4820228101
aI3915175944
aI4820097048
aI4469348383
aI400480289
aI4479178811
aI1076877375
aI854775874
aI4820097093
aI549378122
aI1436342347
aI929552469
aI305387610
aI305387611
aI305387612
aI305387613
aI305387614
aI38656095
aI305387617
aI305387618
aI305387619
aI305387620
aI305387622
aI305387623
aI6609001
aI38656106
aI38656107
aI6609008
aI2597181568
aI907396
aI907398
aI2644170914
aI38656163
aI710820
aI907437
aI4952938672
aI4152577737
aI907450
aI336074275
aI907481
aI907495
aI907496
aI772724970
aI336058605
aI3337853850
aI294902000
aI3268073719
aI318363896
aI4469348602
aI907532
aI710941
aI400611616
aI400611617
aI710949
aI710950
aI710951
aI2198001960
aI3689273650
aI336058677
aI3584940347
aI4367767868
aI798218557
aI710975
aI3351173455
aI4820097362
aI1436342614
aI336058716
aI664525152
aI4820097379
aI4820097391
aI352483733
aI4820031883
aI336058771
aI336058778
aI379050397
aI336058782
aI336058783
aI711085
aI4820097459
aI4820097460
aI3681212854
aI4820359613
aI294902207
aI711104
aI30464454
aI907719
aI907720
aI3849771465
aI97966544
aI38656470
aI38656471
aI4820072868
aI121306
aI336058848
aI711137
aI368695780
aI1320017
aI336058857
aI3938703854
aI907759
aI711158
aI431039573
aI711172
aI711173
aI336058886
aI711175
aI3338000908
aI711184
aI771938833
aI907794
aI907795
aI711194
aI907803
aI368695836
aI294975920
aI772200996
aI1436342823
aI697358889
aI334158378
aI308402732
aI711216
aI711217
aI711218
aI711219
aI711221
aI4047690297
aI711237
aI711241
aI711242
aI711243
aI711244
aI294771277
aI63691342
aI711247
aI63691344
aI711251
aI4469873238
aI711258
aI711262
aI708500064
aI4303936098
aI711268
aI5069068906
aI3914127979
aI4820359794
aI711287
aI711289
aI708500090
aI711300
aI904982
aI2107038344
aI711308
aI711310
aI711311
aI2113042883
aI907924
aI370137749
aI5297461910
aI370137754
aI370137759
aI400612000
aI711329
aI63625892
aI336059045
aI63625899
aI4820228787
aI63625913
aI711354
aI1436342971
aI1694397
aI711359
aI907972
aI907974
aI4820359879
aI5015788232
aI711369
aI4820032202
aI711372
aI711381
aI711385
aI711390
aI711391
aI1227601759
aI3349142245
aI294902503
aI908011
aI908016
aI711414
aI294902519
aI711416
aI711417
aI711419
aI97966846
aI854267241
aI2596068097
aI711426
aI5015788297
aI2712460042
aI711435
aI3338263310
aI908053
aI908054
aI908055
aI908056
aI2264587034
aI908061
aI908063
aI711457
aI711458
aI711459
aI711461
aI711462
aI711463
aI711465
aI711466
aI294771499
aI711468
aI711469
aI711477
aI711478
aI711479
aI711481
aI711482
aI711483
aI711484
aI4820097855
aI4820032326
aI1978915660
aI294771535
aI294771538
aI711508
aI711513
aI711514
aI711519
aI711520
aI711521
aI711522
aI294771556
aI711525
aI711526
aI294771559
aI711528
aI711529
aI711530
aI294771563
aI711537
aI294771572
aI711541
aI850451321
aI711546
aI2274810749
aI711551
aI711552
aI1694600
aI4105034636
aI318383256
aI711573
aI711574
aI908184
aI9821081
aI908187
aI1694621
aI2113526691
aI711588
aI1390856647
aI711597
aI4819966895
aI1436670898
aI514995
aI514996
aI711616
aI345299907
aI1694660
aI8051653
aI9821127
aI711624
aI711629
aI711630
aI711635
aI9821149
aI711646
aI4063222760
aI908265
aI711661
aI711665
aI711670
aI1694711
aI1694712
aI294771706
aI711675
aI711681
aI711682
aI711683
aI1694725
aI3001867270
aI711697
aI711699
aI711701
aI908310
aI4043037719
aI908315
aI908319
aI908322
aI908323
aI1436474411
aI294771759
aI515759155
aI294771764
aI4550548537
aI294771771
aI30465086
aI1301575
aI38657103
aI1694802
aI8343395
aI4002274390
aI1694808
aI1694814
aI640736354
aI266853480
aI38657132
aI449895544
aI711804
aI400481408
aI1301635
aI711813
aI1436671113
aI711823
aI4478524560
aI711826
aI711829
aI908438
aI711831
aI1301661
aI4469218465
aI370138279
aI800513192
aI4820294844
aI549379276
aI711886
aI711889
aI61725906
aI1301715
aI1301717
aI711895
aI711896
aI379051226
aI1301723
aI5984672990
aI711908
aI370138344
aI711915
aI1301756
aI1301757
aI711934
aI711935
aI711937
aI1301765
aI711942
aI711943
aI711950
aI2787040531
aI711962
aI1301792
aI711969
aI4303412517
aI1301802
aI1301804
aI711981
aI2113676509
aI448781616
aI711985
aI711987
aI1301818
aI1301820
aI711998
aI711999
aI1301825
aI1301828
aI1301830
aI1199627591
aI1301832
aI294772043
aI294772044
aI280036055
aI2893929809
aI370138454
aI788192605
aI712034
aI1301865
aI1301866
aI1301871
aI1301873
aI1301878
aI704503162
aI97967489
aI930733447
aI2595020174
aI1301913
aI1301919
aI1301920
aI1301921
aI1301922
aI5476769187
aI351649107
aI974254
aI4304818078
aI446225856
aI3626098114
aI1301955
aI1301956
aI1301957
aI1301962
aI4413644235
aI1301964
aI1301974
aI1301975
aI1301977
aI1301978
aI708500956
aI3958955492
aI5069594089
aI3504266741
aI326378752
aI1302032
aI1302035
aI1302036
aI3813269027
aI1426644522
aI3602570805
aI1436383841
aI257500429
aI294772304
aI294772305
aI4802141783
aI16917776
aI35577445
aI1695336
aI1695346
aI431087222
aI1695361
aI38657667
aI4802141828
aI1695367
aI215146120
aI1695377
aI4820225987
aI257351339
aI257351341
aI257351342
aI1437064881
aI257351351
aI1302201
aI1695421
aI1302207
aI4302036684
aI4303871699
aI38657749
aI1302236
aI1302238
aI383311586
aI1302246
aI4820426474
aI1695468
aI1302263
aI1302264
aI1302265
aI2107039483
aI4238204669
aI2347622143
aI372629248
aI372629249
aI372629250
aI294772484
aI294772485
aI294772486
aI2261245703
aI257351432
aI3992117001
aI294772490
aI1302285
aI1302286
aI1302287
aI1695506
aI2954747669
aI257351446
aI1436344094
aI1270472481
aI2893930277
aI1695531
aI272883522
aI294772554
aI294772556
aI1695567
aI1302353
aI1302354
aI2357190483
aI4820361048
aI258727769
aI3991854939
aI2274746227
aI214884212
aI3938705269
aI1302390
aI1302391
aI1302393
aI1302394
aI1302396
aI1302404
aI4323270539
aI1302438
aI4488945575
aI1695656
aI1436344237
aI1436344238
aI708566975
aI4820313419
aI372629458
aI1302489
aI1302490
aI1302497
aI1302498
aI372629475
aI994500582
aI1302503
aI1302504
aI1302505
aI1302506
aI4251635
aI317468386
aI1436344333
aI1436344351
aI4303151147
aI4802863150
aI8052789
aI1302587
aI1302588
aI2357780549
aI1436344400
aI4152418403
aI82989074
aI4253606006
aI549380231
aI227401895
aI4547272878
aI115400882
aI5089714366
aI4802863302
aI400941259
aI4802863311
aI4820099282
aI4820099283
aI600826095
aI4819968244
aI1436344568
aI4802863353
aI4246003971
aI789242122
aI4153336080
aI4535673105
aI3365986585
aI3996049707
aI2025185582
aI336060726
aI7201081
aI2801718431
aI1443488089
aI217833831
aI369905726
aI400941444
aI766872143
aI4820099485
aI8053154
aI4820095049
aI1436344784
aI308077012
aI308077016
aI8053210
aI4820099550
aI4820099551
aI326164960
aI666952180
aI4303413751
aI475652604
aI30269957
aI5543536044
aI197845523
aI672517
aI605282839
aI3717718553
aI4802863642
aI4246069792
aI464249387
aI2697759173
aI539222591
aI4802863684
aI2055463503
aI1602413149
aI612819553
aI3602506355
aI2275205752
aI284746377
aI995353236
aI336061079
aI1303207
aI4477543085
aI1436345016
aI105833151
aI1436345034
aI372630229
aI3314344668
aI4183286494
aI4820361957
aI1303271
aI4820361969
aI372630263
aI372630264
aI372630265
aI372630266
aI4802120333
aI1437000476
aI1303326
aI1303327
aI4469351201
aI3337872170
aI2197676849
aI317514562
aI8053581
aI8053582
aI8053584
aI8053585
aI8053586
aI8053587
aI4246004564
aI8053590
aI4238467940
aI564519788
aI1303405
aI1303406
aI3938706287
aI1303412
aI364627058
aI171434905
aI1205658522
aI1303455
aI1303463
aI372630443
aI4802143174
aI1303514
aI1303530
aI3437290476
aI1696749
aI1436345330
aI336061455
aI348840977
aI336061466
aI4223853595
aI2276647964
aI13296691
aI4469351504
aI336061524
aI257351345
aI336061532
aI336061533
aI3896108135
aI5377942635
aI1303660
aI1303661
aI1303666
aI1303667
aI1303668
aI39183488
aI84862091
aI4802864268
aI155313295
aI1189733520
aI336061587
aI336061588
aI336061596
aI1303710
aI105374879
aI854713520
aI4304135349
aI4820034742
aI1303743
aI1303744
aI336061633
aI227397835
aI336061637
aI30270662
aI336061640
aI336061645
aI336061649
aI336061653
aI1227482335
aI336061702
aI336061703
aI336061715
aI5015725340
aI1436345637
aI599601
aI2381571381
aI336061757
aI599607
aI1303885
aI450094414
aI1303890
aI2274878819
aI2096751984
aI4469351793
aI1824843125
aI336061825
aI2274813314
aI4802864522
aI3463243153
aI599619
aI38659479
aI4303169092
aI2357716390
aI599623
aI1765533101
aI2096135069
aI599624
aI2643191224
aI673113530
aI1473177019
aI38659516
aI4802864573
aI4820362701
aI336061913
aI336061915
aI336061916
aI336061917
aI599632
aI708503014
aI1304042
aI336061941
aI336061943
aI854779389
aI317330955
aI1436345861
aI1436476935
aI359917073
aI2222712340
aI336061973
aI359917079
aI359917080
aI1304089
aI563602982
aI359917103
aI317468439
aI359917105
aI2197218896
aI317330958
aI336062048
aI336062049
aI4707313254
aI2372593259
aI448456310
aI450094712
aI1697416
aI5017364115
aI336062105
aI336062106
aI1697439
aI1697445
aI336062119
aI1697455
aI336062128
aI563603122
aI1438508724
aI1697461
aI1304251
aI1726342845
aI4477478606
aI4489078479
aI1697502
aI1304290
aI370140912
aI4867745523
aI2644174581
aI1697528
aI257336959
aI1423369981
aI1697534
aI410756736
aI381227
aI3338266372
aI336062213
aI1697549
aI711204
aI3306088218
aI4820094627
aI1697577
aI1697583
aI381235
aI1697590
aI4820095284
aI228714312
aI549463692
aI1185086434
aI778495822
aI1697625
aI1697626
aI1697637
aI4346144621
aI1697653
aI1697659
aI2712135562
aI4302235532
aI1697677
aI1697693
aI1697694
aI1339700
aI976809
aI2425415601
aI3938707383
aI1188882382
aI1697745
aI1697746
aI5125433316
aI4820428784
aI3990605086
aI1828861
aI155314177
aI1697809
aI4134004776
aI1697839
aI4469221424
aI3938707524
aI318351030
aI855173205
aI1726343263
aI1726343274
aI257419371
aI3339642990
aI5743437955
aI38660230
aI38660231
aI38660232
aI38660233
aI336062621
aI38660261
aI38660262
aI2790385832
aI4874102959
aI38660285
aI351594692
aI351594694
aI1304357068
aI317330979
aI227419854
aI351594711
aI351594712
aI351594714
aI1436543214
aI4469352688
aI1979705592
aI1227286783
aI1436356885
aI8055054
aI905603
aI4820101396
aI351594773
aI3915687641
aI8055064
aI8055065
aI8055066
aI1437591836
aI8055070
aI8055071
aI8055072
aI8055073
aI4820101410
aI8055076
aI8055077
aI8055078
aI8055080
aI8055081
aI1807149354
aI8055083
aI8055084
aI539158843
aI1436346700
aI155314514
aI8055128
aI4246071647
aI400423995
aI257337062
aI3682855271
aI4469156206
aI1436346739
aI2853955965
aI4302170516
aI324135337
aI3376081322
aI4303300338
aI2197744069
aI351660497
aI1698266
aI1698267
aI3312314844
aI1441262050
aI1698278
aI351660524
aI3936545261
aI351660526
aI4239714799
aI351660533
aI1726343673
aI351660538
aI1305087
aI351660544
aI1698315
aI1726343696
aI2441406994
aI2604001814
aI3498175011
aI3337873957
aI4777372198
aI381361
aI554297904
aI554297906
aI2823481911
aI1698375
aI4304136776
aI2565725887
aI4478397014
aI1429203545
aI472050285
aI1390865008
aI4134005371
aI1698431
aI257337110
aI3895742914
aI1436347034
aI855173801
aI1726343853
aI381389
aI257337123
aI450095840
aI125627111
aI1436347120
aI4302116201
aI3573803779
aI3571444493
aI4304726804
aI30790106
aI257348059
aI437119790
aI2898931658
aI4820429618
aI2886921013
aI8055607
aI4802079544
aI1429197279
aI3938708294
aI257348065
aI30790114
aI1436478294
aI261679963
aI967306076
aI4080069475
aI3522423658
aI2176889428
aI563849022
aI1726344071
aI4820149848
aI4820095468
aI8055690
aI8055696
aI8055697
aI8055698
aI8055699
aI8055700
aI8055701
aI8055702
aI8055704
aI8055706
aI8055707
aI8055708
aI8055709
aI8055711
aI8055712
aI8055713
aI200469410
aI8055715
aI8055716
aI8055717
aI8055718
aI8055719
aI8055720
aI8055721
aI8055722
aI8055723
aI13495228
aI257337162
aI1436347331
aI4820059719
aI711245
aI4497533931
aI2157964271
aI4469943288
aI3938905087
aI208890135
aI1331712
aI2910383113
aI6568433
aI1436478500
aI410760112
aI3671911495
aI4303154248
aI1630202953
aI348646479
aI8055889
aI4802473051
aI3681741920
aI4469156983
aI4154190975
aI1830038
aI1515515033
aI4303416480
aI1830053
aI38752797
aI3671780530
aI450096313
aI2006641853
aI4820233415
aI1860496590
aI4469353683
aI418901231
aI4245744894
aI716052
aI2677723694
aI716054
aI272887063
aI716058
aI716060
aI716061
aI3013143852
aI351661371
aI2207116604
aI3739348304
aI3337940322
aI294911208
aI38661494
aI351661434
aI351661435
aI3550408062
aI69135749
aI4469943687
aI351661454
aI4478594448
aI782232980
aI4820102555
aI2006576542
aI788393376
aI668069295
aI6483380
aI1429204422
aI372633047
aI4441763293
aI257501093
aI3314602576
aI3682790887
aI4820102641
aI1193864692
aI1306107
aI1306108
aI1306111
aI1306115
aI1306117
aI1306118
aI4302040593
aI4301975065
aI616361503
aI329248300
aI1830445
aI1830446
aI4477021752
aI4820102717
aI288943705
aI288943706
aI3692883551
aI315354734
aI418901624
aI1918889600
aI288943790
aI288943795
aI288943796
aI991358645
aI4802145976
aI288943802
aI288943803
aI288943811
aI329248452
aI4539018949
aI317346425
aI3241995992
aI5990969054
aI38661859
aI2595352292
aI171437833
aI978703
aI978710
aI3996053284
aI329248550
aI317510281
aI38727494
aI38727495
aI38661960
aI4802473813
aI3422416755
aI7729017
aI4246466443
aI4802146191
aI294973335
aI4245942189
aI564457402
aI3338203067
aI257421262
aI929492959
aI4820430817
aI1436348392
aI1436690428
aI4478595052
aI4981321711
aI704573425
aI1436348411
aI294973444
aI3890606109
aI3766808606
aI351662111
aI4802474017
aI2617896996
aI3676303406
aI2672947253
aI2380394553
aI2577461316
aI1437266003
aI351662165
aI3739283546
aI4246466656
aI294908001
aI294908002
aI61730926
aI351662195
aI317488489
aI3602247804
aI351662206
aI351662210
aI4304728201
aI1436348560
aI351662225
aI2790387858
aI351662227
aI10023067
aI4802146470
aI1436348584
aI979116
aI7729330
aI4479250611
aI4512411831
aI372633784
aI351662267
aI1199304895
aI979141
aI6563873
aI1301672143
aI351662293
aI2388426106
aI1806233832
aI38727921
aI1339551990
aI418771198
aI6280638724
aI3337941253
aI3584815367
aI294973711
aI4820234513
aI4820103455
aI4820365604
aI38662443
aI3582783789
aI2781606191
aI431035533
aI38662458
aI38662459
aI294973770
aI317488525
aI3314544980
aI4820103513
aI4820103514
aI3631250831
aI4802474338
aI351662441
aI1436807532
aI4820365692
aI1806430597
aI329249159
aI329249172
aI2817978775
aI4820103578
aI4802474396
aI332525996
aI717233
aI717234
aI1390932404
aI717237
aI717242
aI717243
aI717246
aI717252
aI717255
aI1429598664
aI616296905
aI717260
aI717262
aI717263
aI717264
aI717265
aI717267
aI717269
aI717270
aI1331961
aI717273
aI317510395
aI288944616
aI288944617
aI288944618
aI717293
aI3298619889
aI288944632
aI288944633
aI717306
aI717307
aI257290750
aI979456
aI717315
aI717316
aI717317
aI288944646
aI717319
aI717320
aI717321
aI717323
aI717329
aI717331
aI717333
aI326169113
aI717342
aI349696545
aI4022989355
aI3584881209
aI1436330079
aI3938710085
aI933622343
aI4802146889
aI4820234841
aI288944732
aI6607633
aI16970346
aI351662700
aI979573
aI200471163
aI979580
aI4820234878
aI288944767
aI979584
aI345305735
aI351675472
aI4820365964
aI3463806402
aI4820234896
aI1437201043
aI351662743
aI351662744
aI38728345
aI351662746
aI323124677
aI38728361
aI4802146986
aI2107896493
aI4820199831
aI3311399610
aI3718181567
aI351662786
aI565048008
aI4820234954
aI351662796
aI4820234970
aI369092093
aI294908637
aI257388743
aI3084579556
aI4357681907
aI1602679544
aI351662846
aI326103808
aI38728454
aI2888553260
aI3878482705
aI4892979988
aI3812356908
aI4820235086
aI2931009677
aI255718233
aI257337487
aI257337489
aI17167220
aI2595615606
aI4514771831
aI4469139604
aI317302933
aI284750721
aI3938710404
aI1436808073
aI400946071
aI349959074
aI6289355687
aI4477571911
aI4478522184
aI717762
aI717763
aI294908869
aI294908870
aI294908882
aI1429205976
aI3184988939
aI13235183
aI1436480496
aI2596402168
aI4246087853
aI3181310997
aI63691343
aI1429206047
aI474412073
aI2097345596
aI2055730239
aI772666454
aI1436480608
aI317488656
aI3720148066
aI538047609
aI484766849
aI400946306
aI359920779
aI359920780
aI359920785
aI2817979545
aI284751006
aI359920799
aI4476761268
aI351663287
aI3640980664
aI4820890825
aI1436349652
aI4302042337
aI274593001
aI938210540
aI2274817265
aI17560820
aI4820235521
aI3338335491
aI226030853
aI6607745
aI288814348
aI3867931922
aI2062873875
aI4302828827
aI38663456
aI4820235553
aI3201561890
aI2912417062
aI38663466
aI906119
aI38729010
aI38663475
aI3938710837
aI1436808502
aI1650718010
aI17560892
aI1732375871
aI3584882003
aI6607759
aI1429206364
aI4802475358
aI1199240546
aI1390736743
aI642754793
aI3338490772
aI3242456446
aI38729087
aI288814482
aI3812816275
aI1436349856
aI3430675888
aI4388303
aI798684625
aI1436480987
aI2496984564
aI1436490114
aI257348525
aI288814609
aI288814610
aI2670720532
aI288814614
aI4246009370
aI30789424
aI2113205802
aI351598125
aI421593
aI4246468144
aI4246468145
aI855176758
aI3181246017
aI3733058
aI351598148
aI351598149
aI208991839
aI3935696501
aI1440282230
aI4820139626
aI128120461
aI38663830
aI38663831
aI38663832
aI4820235929
aI1332165
aI938210976
aI4802803369
aI4624348848
aI933754547
aI4820104884
aI339408575
aI8058563
aI8058564
aI257337633
aI1443231442
aI38673936
aI1438250730
aI1436481259
aI294955309
aI317303086
aI704575261
aI2347628320
aI1511782180
aI1313142582
aI1436330292
aI5015688164
aI1436350303
aI2189162353
aI127203210
aI5602211723
aI1429206925
aI6640621
aI4802475937
aI317477873
aI288815020
aI3338709320
aI4820105141
aI567626
aI1436350420
aI4820236249
aI370669536
aI704509922
aI2347925159
aI1436350449
aI1332222
aI2854352897
aI4837603337
aI4476762131
aI17627159
aI308148250
aI351664161
aI351664163
aI351664165
aI3453089830
aI4302108715
aI351664184
aI1436350525
aI501413953
aI351664194
aI351664198
aI351664199
aI1332236
aI351664202
aI564459597
aI6640653
aI5788687
aI665319516
aI4802476128
aI4820367467
aI351664243
aI1436350589
aI653445
aI3878549641
aI1441724561
aI2098067603
aI317477914
aI38664350
aI491518127
aI1332254
aI3938908351
aI4820170947
aI400468342
aI8648902
aI4802476235
aI4441766093
aI1931802832
aI3337943252
aI412199289
aI207836196
aI1434777820
aI2924214499
aI351638428
aI1437333750
aI1436350719
aI4239653124
aI564439425
aI3337943308
aI376240400
aI850524433
aI3198220573
aI376240418
aI376240419
aI3241277733
aI351598898
aI336066867
aI778828084
aI3306027321
aI376240445
aI376240447
aI2343827782
aI30789451
aI6226704737
aI367886056
aI1437333880
aI3349150081
aI778566023
aI1436350862
aI1224604060
aI4820236711
aI292354480
aI4874238388
aI294975926
aI539164404
aI2161768896
aI317477966
aI47970830
aI4304861728
aI4302830121
aI4303419968
aI4820236868
aI47970886
aI51182158
aI5198445143
aI2197486180
aI2596459624
aI6607978
aI5245565566
aI1436351105
aI1436351106
aI3305896582
aI6220020360
aI4302174857
aI956430987
aI4100323990
aI1760950962
aI1391350902
aI4476631750
aI2096233187
aI704576235
aI1469802357
aI257347892
aI567764
aI3349150467
aI1390803716
aI929692429
aI7731984
aI4304730899
aI3605330708
aI4485991396
aI30789467
aI5824314155
aI305387626
aI329055032
aI6608010
aI38644193
aI155515727
aI572193620
aI2787048277
aI226032480
aI4205181815
aI1664088958
aI5476776856
aI1436351414
aI766891167
aI4802476989
aI257348768
aI4478598084
aI4336778192
aI4478467033
aI538967006
aI185072610
aI283835380
aI538967033
aI3821140990
aI3363044368
aI4820106260
aI592903191
aI664851631
aI410834444
aI4820368432
aI400423987
aI3676306487
aI400423992
aI400423993
aI400423994
aI294911035
aI610008127
aI400424006
aI1437072475
aI400424036
aI400424040
aI376241264
aI61734760
aI400424051
aI376241275
aI38731626
aI4478532734
aI376241280
aI30801025
aI376241288
aI4820368543
aI2381577379
aI4820106413
aI4116839605
aI1437072605
aI1437072607
aI1592261859
aI4303355108
aI4303355112
aI4820172023
aI82771193
aI317346427
aI3359046921
aI6282149131
aI82771226
aI82771227
aI82771228
aI353785051
aI1436548397
aI6683977
aI4820237646
aI410058079
aI4596235621
aI5401869673
aI3606445419
aI4802477432
aI38731135
aI982412
aI982413
aI1390870425
aI2110389658
aI231472542
aI1101987233
aI4304076204
aI1439104436
aI207836408
aI400489946
aI1538070026
aI2196897270
aI708509191
aI1436548633
aI4824432155
aI345287259
aI797310502
aI336068147
aI854785594
aI567907
aI7776868
aI336068187
aI84868701
aI4304076387
aI4820106854
aI3324531985
aI257408482
aI336068210
aI4820106869
aI38731388
aI336068225
aI336068226
aI336068227
aI2161770123
aI104726186
aI1429012158
aI929496775
aI336068304
aI336068306
aI336068307
aI207836452
aI1436548834
aI336068325
aI336068339
aI336068340
aI336068348
aI772669200
aI2790227930
aI336068386
aI4820434724
aI4302765862
aI336068391
aI155320113
aI4820369208
aI2672951099
aI228720449
aI1650130756
aI336068437
aI4302831449
aI567382
aI1545207655
aI3571384168
aI1436548970
aI410756735
aI182845308
aI182845311
aI336068485
aI228720519
aI2707423112
aI854785932
aI4023910289
aI613810067
aI1436680088
aI351655236
aI8060827
aI4013359004
aI4820256950
aI2544369572
aI4820107181
aI1274437
aI4303170206
aI929497020
aI336068547
aI2752315332
aI336068549
aI336068551
aI336068552
aI3470655438
aI4820107221
aI2006712278
aI1270074
aI3660229285
aI2055274483
atp2
Rp3
.